(dp1
S'endings'
p2
(lp3
(I1
I2245
S'e'
ta(I2245
I4068
S's'
ta(I4068
I5764
S'd'
ta(I5764
I7050
S'ng'
p4
ta(I7050
I8223
S'a'
ta(I8223
I9346
S'n'
ta(I9346
I10399
S'y'
ta(I10399
I11278
S'r'
ta(I11278
I12114
S'o'
ta(I12114
I12822
S'i'
ta(I12822
I13402
S'l'
ta(I13402
I13847
S'h'
ta(I13847
I14240
S'u'
ta(I14240
I14580
S'm'
ta(I14580
I14917
S'nt'
p5
ta(I14917
I15248
S'ns'
p6
ta(I15248
I15527
S'rs'
p7
ta(I15527
I15760
S'ss'
p8
ta(I15760
I15989
S't'
ta(I15989
I16177
S'st'
p9
ta(I16177
I16301
S'ue'
p10
ta(I16301
I16421
S'nts'
p11
ta(I16421
I16531
S'aa'
p12
ta(I16531
I16640
S'c'
ta(I16640
I16742
S'ts'
p13
ta(I16742
I16842
S'ls'
p14
ta(I16842
I16941
S'nd'
p15
ta(I16941
I17026
S'th'
p16
ta(I17026
I17103
S'w'
ta(I17103
I17179
S'ia'
p17
ta(I17179
I17254
S'io'
p18
ta(I17254
I17325
S'ngs'
p19
ta(I17325
I17389
S'p'
ta(I17389
I17451
S'sh'
p20
ta(I17451
I17513
S'll'
p21
ta(I17513
I17574
S'rd'
p22
ta(I17574
I17630
S'ct'
p23
ta(I17630
I17684
S'ws'
p24
ta(I17684
I17738
S'ght'
p25
ta(I17738
I17791
S'ck'
p26
ta(I17791
I17843
S'nds'
p27
ta(I17843
I17893
S'ii'
p28
ta(I17893
I17943
S'ds'
p29
ta(I17943
I17991
S'sts'
p30
ta(I17991
I18039
S'rt'
p31
ta(I18039
I18084
S'ms'
p32
ta(I18084
I18127
S'z'
ta(I18127
I18168
S'ay'
p33
ta(I18168
I18208
S'ya'
p34
ta(I18208
I18246
S'ld'
p35
ta(I18246
I18283
S'x'
ta(I18283
I18320
S'rn'
p36
ta(I18320
I18356
S'yo'
p37
ta(I18356
I18389
S'rk'
p38
ta(I18389
I18420
S'cts'
p39
ta(I18420
I18450
S'rds'
p40
ta(I18450
I18480
S'ps'
p41
ta(I18480
I18509
S'cks'
p42
ta(I18509
I18537
S'rts'
p43
ta(I18537
I18564
S'lls'
p44
ta(I18564
I18590
S'k'
ta(I18590
I18616
S'ch'
p45
ta(I18616
I18640
S'oi'
p46
ta(I18640
I18663
S'lt'
p47
ta(I18663
I18686
S'g'
ta(I18686
I18709
S'ey'
p48
ta(I18709
I18732
S'aaya'
p49
ta(I18732
I18754
S'ee'
p50
ta(I18754
I18776
S'b'
ta(I18776
I18797
S'rm'
p51
ta(I18797
I18818
S'oe'
p52
ta(I18818
I18839
S'nks'
p53
ta(I18839
I18860
S'nk'
p54
ta(I18860
I18880
S'wn'
p55
ta(I18880
I18899
S'ou'
p56
ta(I18899
I18918
S'ft'
p57
ta(I18918
I18937
S'f'
ta(I18937
I18956
S'ae'
p58
ta(I18956
I18973
S'pt'
p59
ta(I18973
I18989
S'rns'
p60
ta(I18989
I19005
S'gs'
p61
ta(I19005
I19020
S'tch'
p62
ta(I19020
I19035
S'gh'
p63
ta(I19035
I19049
S'ie'
p64
ta(I19049
I19062
S'gn'
p65
ta(I19062
I19075
S'cs'
p66
ta(I19075
I19087
S'uyu'
p67
ta(I19087
I19099
S'ths'
p68
ta(I19099
I19111
S'mp'
p69
ta(I19111
I19123
S'lk'
p70
ta(I19123
I19135
S'lf'
p71
ta(I19135
I19147
S'ks'
p72
ta(I19147
I19159
S'ea'
p73
ta(I19159
I19171
S'ai'
p74
ta(I19171
I19182
S'nch'
p75
ta(I19182
I19193
S'lts'
p76
ta(I19193
I19204
S'ayo'
p77
ta(I19204
I19214
S'sm'
p78
ta(I19214
I19224
S'oy'
p79
ta(I19224
I19234
S'iyo'
p80
ta(I19234
I19244
S'ff'
p81
ta(I19244
I19253
S'rks'
p82
ta(I19253
I19262
S'q'
ta(I19262
I19271
S'nth'
p83
ta(I19271
I19280
S'lds'
p84
ta(I19280
I19289
S'fts'
p85
ta(I19289
I19298
S'ao'
p86
ta(I19298
I19306
S'rth'
p87
ta(I19306
I19314
S'rms'
p88
ta(I19314
I19322
S'rch'
p89
ta(I19322
I19330
S'mb'
p90
ta(I19330
I19338
S'eo'
p91
ta(I19338
I19346
S'ei'
p92
ta(I19346
I19354
S'aye'
p93
ta(I19354
I19361
S'ua'
p94
ta(I19361
I19368
S'sk'
p95
ta(I19368
I19375
S'mps'
p96
ta(I19375
I19382
S'ghts'
p97
ta(I19382
I19389
S'aya'
p98
ta(I19389
I19395
S'yue'
p99
ta(I19395
I19401
S'ye'
p100
ta(I19401
I19407
S'pts'
p101
ta(I19407
I19413
S'bs'
p102
ta(I19413
I19418
S'sks'
p103
ta(I19418
I19423
S'rst'
p104
ta(I19423
I19428
S'rl'
p105
ta(I19428
I19433
S'nths'
p106
ta(I19433
I19438
S'lm'
p107
ta(I19438
I19443
S'gmt'
p108
ta(I19443
I19448
S'fs'
p109
ta(I19448
I19452
S'yai'
p110
ta(I19452
I19456
S'yaa'
p111
ta(I19456
I19460
S'xt'
p112
ta(I19460
I19464
S'wl'
p113
ta(I19464
I19468
S'rths'
p114
ta(I19468
I19472
S'rf'
p115
ta(I19472
I19476
S'oyo'
p116
ta(I19476
I19480
S'oya'
p117
ta(I19480
I19484
S'mpt'
p118
ta(I19484
I19488
S'mn'
p119
ta(I19488
I19492
S'mbs'
p120
ta(I19492
I19496
S'ioi'
p121
ta(I19496
I19500
S'eyo'
p122
ta(I19500
I19503
S'wns'
p123
ta(I19503
I19506
S'wls'
p124
ta(I19506
I19509
S'rb'
p125
ta(I19509
I19512
S'ph'
p126
ta(I19512
I19515
S'nn'
p127
ta(I19515
I19518
S'lth'
p128
ta(I19518
I19521
S'lp'
p129
ta(I19521
I19524
S'lms'
p130
ta(I19524
I19527
S'lks'
p131
ta(I19527
I19530
S'dth'
p132
ta(I19530
I19533
S'ayii'
p133
ta(I19533
I19536
S'aayo'
p134
ta(I19536
I19539
S'aayai'
p135
ta(I19539
I19541
S'yoi'
p136
ta(I19541
I19543
S'yayaa'
p137
ta(I19543
I19545
S'yau'
p138
ta(I19545
I19547
S'xts'
p139
ta(I19547
I19549
S'wd'
p140
ta(I19549
I19551
S'uyo'
p141
ta(I19551
I19553
S'uy'
p142
ta(I19553
I19555
S'uo'
p143
ta(I19555
I19557
S'ui'
p144
ta(I19557
I19559
S'tt'
p145
ta(I19559
I19561
S'sp'
p146
ta(I19561
I19563
S'sms'
p147
ta(I19563
I19565
S'rv'
p148
ta(I19565
I19567
S'rps'
p149
ta(I19567
I19569
S'rp'
p150
ta(I19569
I19571
S'rls'
p151
ta(I19571
I19573
S'rg'
p152
ta(I19573
I19575
S'rbs'
p153
ta(I19575
I19577
S'oue'
p154
ta(I19577
I19579
S'oiea'
p155
ta(I19579
I19581
S'nst'
p156
ta(I19581
I19583
S'ngth'
p157
ta(I19583
I19585
S'ncts'
p158
ta(I19585
I19587
S'nct'
p159
ta(I19587
I19589
S'mpts'
p160
ta(I19589
I19591
S'mns'
p161
ta(I19591
I19593
S'lps'
p162
ta(I19593
I19595
S'iya'
p163
ta(I19595
I19597
S'iu'
p164
ta(I19597
I19599
S'gns'
p165
ta(I19599
I19601
S'ghs'
p166
ta(I19601
I19603
S'ffs'
p167
ta(I19603
I19605
S'eya'
p168
ta(I19605
I19607
S'eau'
p169
ta(I19607
I19609
S'dths'
p170
ta(I19609
I19611
S'dds'
p171
ta(I19611
I19613
S'dd'
p172
ta(I19613
I19615
S'bts'
p173
ta(I19615
I19617
S'bt'
p174
ta(I19617
I19619
S'ayu'
p175
ta(I19619
I19621
S'ayou'
p176
ta(I19621
I19623
S'ayoo'
p177
ta(I19623
I19625
S'ayoi'
p178
ta(I19625
I19627
S'au'
p179
ta(I19627
I19629
S'aie'
p180
ta(I19629
I19630
S'you'
p181
ta(I19630
I19631
S'yii'
p182
ta(I19631
I19632
S'yea'
p183
ta(I19632
I19633
S'yaya'
p184
ta(I19633
I19634
S'yaayo'
p185
ta(I19634
I19635
S'yaayii'
p186
ta(I19635
I19636
S'yaaya'
p187
ta(I19636
I19637
S'xth'
p188
ta(I19637
I19638
S'wth'
p189
ta(I19638
I19639
S'wds'
p190
ta(I19639
I19640
S'v'
ta(I19640
I19641
S'uye'
p191
ta(I19641
I19642
S'ueo'
p192
ta(I19642
I19643
S'uay'
p193
ta(I19643
I19644
S'tv'
p194
ta(I19644
I19645
S'tts'
p195
ta(I19645
I19646
S'tc'
p196
ta(I19646
I19647
S'ssrs'
p197
ta(I19647
I19648
S'rsts'
p198
ta(I19648
I19649
S'rsh'
p199
ta(I19649
I19650
S'rr'
p200
ta(I19650
I19651
S'rnt'
p201
ta(I19651
I19652
S'rmth'
p202
ta(I19652
I19653
S'rlds'
p203
ta(I19653
I19654
S'rld'
p204
ta(I19654
I19655
S'rfs'
p205
ta(I19655
I19656
S'rc'
p206
ta(I19656
I19657
S'pths'
p207
ta(I19657
I19658
S'pth'
p208
ta(I19658
I19659
S'pp'
p209
ta(I19659
I19660
S'pmb'
p210
ta(I19660
I19661
S'phs'
p211
ta(I19661
I19662
S'oo'
p212
ta(I19662
I19663
S'ntz'
p213
ta(I19663
I19664
S'nns'
p214
ta(I19664
I19665
S'ngths'
p215
ta(I19665
I19666
S'ngst'
p216
ta(I19666
I19667
S'ndt'
p217
ta(I19667
I19668
S'ncs'
p218
ta(I19668
I19669
S'nc'
p219
ta(I19669
I19670
S'mrs'
p220
ta(I19670
I19671
S'mphs'
p221
ta(I19671
I19672
S'lst'
p222
ta(I19672
I19673
S'lph'
p223
ta(I19673
I19674
S'lfth'
p224
ta(I19674
I19675
S'lch'
p225
ta(I19675
I19676
S'lbs'
p226
ta(I19676
I19677
S'lb'
p227
ta(I19677
I19678
S'iyaa'
p228
ta(I19678
I19679
S'iiya'
p229
ta(I19679
I19680
S'iii'
p230
ta(I19680
I19681
S'iee'
p231
ta(I19681
I19682
S'hn'
p232
ta(I19682
I19683
S'hl'
p233
ta(I19683
I19684
S'gm'
p234
ta(I19684
I19685
S'ghths'
p235
ta(I19685
I19686
S'ghth'
p236
ta(I19686
I19687
S'ggs'
p237
ta(I19687
I19688
S'gg'
p238
ta(I19688
I19689
S'ftp'
p239
ta(I19689
I19690
S'fth'
p240
ta(I19690
I19691
S'eye'
p241
ta(I19691
I19692
S'eii'
p242
ta(I19692
I19693
S'dvd'
p243
ta(I19693
I19694
S'dst'
p244
ta(I19694
I19695
S'cwt'
p245
ta(I19695
I19696
S'cr'
p246
ta(I19696
I19697
S'chs'
p247
ta(I19697
I19698
S'blv'
p248
ta(I19698
I19699
S'ayey'
p249
ta(I19699
I19700
S'ayaa'
p250
tasS'beginnings'
p251
(lp252
(I1
I1295
S'a'
ta(I1295
I2584
S'c'
ta(I2584
I3841
S's'
ta(I3841
I4932
S'd'
ta(I4932
I6016
S'm'
ta(I6016
I6918
S'i'
ta(I6918
I7815
S'r'
ta(I7815
I8708
S'p'
ta(I8708
I9566
S'e'
ta(I9566
I10203
S'h'
ta(I10203
I10824
S'l'
ta(I10824
I11403
S't'
ta(I11403
I11982
S'n'
ta(I11982
I12544
S'f'
ta(I12544
I13081
S'k'
ta(I13081
I13586
S'pr'
p253
ta(I13586
I14063
S'b'
ta(I14063
I14511
S'v'
ta(I14511
I14928
S'u'
ta(I14928
I15345
S'o'
ta(I15345
I15748
S'w'
ta(I15748
I16077
S'sh'
p254
ta(I16077
I16375
S'g'
ta(I16375
I16596
S'ch'
p255
ta(I16596
I16794
S'st'
p256
ta(I16794
I16981
S'tr'
p257
ta(I16981
I17153
S'j'
ta(I17153
I17303
S'br'
p258
ta(I17303
I17439
S'q'
ta(I17439
I17575
S'gr'
p259
ta(I17575
I17676
S'cl'
p260
ta(I17676
I17768
S'sp'
p261
ta(I17768
I17857
S'th'
p262
ta(I17857
I17941
S'pl'
p263
ta(I17941
I18025
S'cr'
p264
ta(I18025
I18108
S'ya'
p265
ta(I18108
I18191
S'fr'
p266
ta(I18191
I18271
S'ts'
p267
ta(I18271
I18350
S'dr'
p268
ta(I18350
I18428
S'fl'
p269
ta(I18428
I18496
S'str'
p270
ta(I18496
I18561
S'wh'
p271
ta(I18561
I18626
S'bh'
p272
ta(I18626
I18690
S'bl'
p273
ta(I18690
I18745
S'shr'
p274
ta(I18745
I18799
S'sl'
p275
ta(I18799
I18852
S'yo'
p276
ta(I18852
I18895
S'yu'
p277
ta(I18895
I18937
S'sc'
p278
ta(I18937
I18979
S'gl'
p279
ta(I18979
I19019
S'ea'
p280
ta(I19019
I19057
S'sw'
p281
ta(I19057
I19089
S'thr'
p282
ta(I19089
I19121
S'kn'
p283
ta(I19121
I19151
S'ou'
p284
ta(I19151
I19181
S'au'
p285
ta(I19181
I19210
S'wr'
p286
ta(I19210
I19239
S'dh'
p287
ta(I19239
I19266
S'sm'
p288
ta(I19266
I19293
S'ph'
p289
ta(I19293
I19319
S'sk'
p290
ta(I19319
I19342
S'scr'
p291
ta(I19342
I19364
S'ai'
p292
ta(I19364
I19385
S'sv'
p293
ta(I19385
I19405
S'tw'
p294
ta(I19405
I19423
S'spr'
p295
ta(I19423
I19441
S'aa'
p296
ta(I19441
I19455
S'sn'
p297
ta(I19455
I19467
S'eu'
p298
ta(I19467
I19478
S'you'
p299
ta(I19478
I19487
S'sth'
p300
ta(I19487
I19495
S'z'
ta(I19495
I19503
S'oi'
p301
ta(I19503
I19511
S'ksh'
p302
ta(I19511
I19519
S'ei'
p303
ta(I19519
I19527
S'chr'
p304
ta(I19527
I19534
S'ae'
p305
ta(I19534
I19540
S'dw'
p306
ta(I19540
I19545
S'yea'
p307
ta(I19545
I19550
S'sr'
p308
ta(I19550
I19555
S'sq'
p309
ta(I19555
I19560
S'spl'
p310
ta(I19560
I19565
S'sch'
p311
ta(I19565
I19570
S'mc'
p312
ta(I19570
I19575
S'ii'
p313
ta(I19575
I19580
S'ayu'
p314
ta(I19580
I19584
S'yie'
p315
ta(I19584
I19588
S'ye'
p316
ta(I19588
I19592
S'yaa'
p317
ta(I19592
I19596
S'x'
ta(I19596
I19600
S'oa'
p318
ta(I19600
I19604
S'll'
p319
ta(I19604
I19608
S'kr'
p320
ta(I19608
I19611
S'shch'
p321
ta(I19611
I19614
S'rh'
p322
ta(I19614
I19617
S'phr'
p323
ta(I19617
I19620
S'dv'
p324
ta(I19620
I19623
S'chl'
p325
ta(I19623
I19626
S'chh'
p326
ta(I19626
I19628
S'yae'
p327
ta(I19628
I19630
S'uu'
p328
ta(I19630
I19632
S'tv'
p329
ta(I19632
I19634
S'sph'
p330
ta(I19634
I19636
S'shl'
p331
ta(I19636
I19638
S'oeya'
p332
ta(I19638
I19640
S'kv'
p333
ta(I19640
I19642
S'kh'
p334
ta(I19642
I19644
S'iu'
p335
ta(I19644
I19646
S'io'
p336
ta(I19646
I19648
S'ie'
p337
ta(I19648
I19650
S'gh'
p338
ta(I19650
I19652
S'eya'
p339
ta(I19652
I19653
S'yi'
p340
ta(I19653
I19654
S'yeo'
p341
ta(I19654
I19655
S'thw'
p342
ta(I19655
I19656
S'shv'
p343
ta(I19656
I19657
S'shsh'
p344
ta(I19657
I19658
S'shhv'
p345
ta(I19658
I19659
S'shhtr'
p346
ta(I19659
I19660
S'shh'
p347
ta(I19660
I19661
S'phth'
p348
ta(I19661
I19662
S'phl'
p349
ta(I19662
I19663
S'oy'
p350
ta(I19663
I19664
S'mg'
p351
ta(I19664
I19665
S'mck'
p352
ta(I19665
I19666
S'kl'
p353
ta(I19666
I19667
S'iya'
p354
ta(I19667
I19668
S'gn'
p355
ta(I19668
I19669
S'ghn'
p356
ta(I19669
I19670
S'eye'
p357
ta(I19670
I19671
S'dhr'
p358
ta(I19671
I19672
S'chrm'
p359
ta(I19672
I19673
S'bhr'
p360
ta(I19673
I19674
S'ay'
p361
ta(I19674
I19675
S'ao'
p362
ta(I19675
I19676
S'aayu'
p363
tasS'medials'
p364
(lp365
(I1
I9784
S'e'
ta(I9784
I18583
S'a'
ta(I18583
I25967
S'i'
ta(I25967
I30809
S'o'
ta(I30809
I33764
S'r'
ta(I33764
I36688
S'u'
ta(I36688
I39265
S't'
ta(I39265
I41540
S'n'
ta(I41540
I43062
S'm'
ta(I43062
I44294
S'd'
ta(I44294
I45457
S's'
ta(I45457
I46618
S'l'
ta(I46618
I47709
S'v'
ta(I47709
I48720
S'c'
ta(I48720
I49555
S'io'
p366
ta(I49555
I50341
S'k'
ta(I50341
I51101
S'g'
ta(I51101
I51793
S'nt'
p367
ta(I51793
I52424
S'aa'
p368
ta(I52424
I52980
S'st'
p369
ta(I52980
I53536
S'ea'
p370
ta(I53536
I54090
S'p'
ta(I54090
I54588
S'ie'
p371
ta(I54588
I55085
S'nd'
p372
ta(I55085
I55579
S'b'
ta(I55579
I56028
S'nc'
p373
ta(I56028
I56441
S'ou'
p374
ta(I56441
I56852
S'ai'
p375
ta(I56852
I57260
S'sh'
p376
ta(I57260
I57635
S'll'
p377
ta(I57635
I57968
S'rt'
p378
ta(I57968
I58285
S'ct'
p379
ta(I58285
I58591
S'f'
ta(I58591
I58894
S'ss'
p380
ta(I58894
I59194
S'ia'
p381
ta(I59194
I59485
S'bl'
p382
ta(I59485
I59731
S'j'
ta(I59731
I59975
S'ee'
p383
ta(I59975
I60211
S'w'
ta(I60211
I60439
S'rr'
p384
ta(I60439
I60667
S'ns'
p385
ta(I60667
I60891
S'h'
ta(I60891
I61112
S'ue'
p386
ta(I61112
I61331
S'z'
ta(I61331
I61540
S'mp'
p387
ta(I61540
I61734
S'ch'
p388
ta(I61734
I61922
S'rm'
p389
ta(I61922
I62108
S'oo'
p390
ta(I62108
I62293
S'tt'
p391
ta(I62293
I62467
S'ng'
p392
ta(I62467
I62626
S'ui'
p393
ta(I62626
I62778
S'rv'
p394
ta(I62778
I62926
S'ua'
p395
ta(I62926
I63069
S'rn'
p396
ta(I63069
I63205
S'rs'
p397
ta(I63205
I63340
S'th'
p398
ta(I63340
I63475
S'rg'
p399
ta(I63475
I63608
S'nn'
p400
ta(I63608
I63739
S'oi'
p401
ta(I63739
I63864
S'ii'
p402
ta(I63864
I63988
S'y'
ta(I63988
I64112
S'x'
ta(I64112
I64234
S'rd'
p403
ta(I64234
I64355
S'lt'
p404
ta(I64355
I64475
S'mm'
p405
ta(I64475
I64594
S'sc'
p406
ta(I64594
I64713
S'pp'
p407
ta(I64713
I64825
S'str'
p408
ta(I64825
I64936
S'sp'
p409
ta(I64936
I65047
S'ntr'
p410
ta(I65047
I65156
S'nv'
p411
ta(I65156
I65264
S'ya'
p412
ta(I65264
I65369
S'ff'
p413
ta(I65369
I65472
S'nf'
p414
ta(I65472
I65574
S'tr'
p415
ta(I65574
I65673
S'cc'
p416
ta(I65673
I65771
S'dh'
p417
ta(I65771
I65868
S'oa'
p418
ta(I65868
I65962
S'ts'
p419
ta(I65962
I66054
S'q'
ta(I66054
I66145
S'au'
p420
ta(I66145
I66235
S'rc'
p421
ta(I66235
I66322
S'ei'
p422
ta(I66322
I66407
S'bh'
p423
ta(I66407
I66491
S'mb'
p424
ta(I66491
I66572
S'rl'
p425
ta(I66572
I66652
S'iou'
p426
ta(I66652
I66730
S'pr'
p427
ta(I66730
I66805
S'uu'
p428
ta(I66805
I66879
S'mpl'
p429
ta(I66879
I66952
S'pt'
p430
ta(I66952
I67018
S'xp'
p431
ta(I67018
I67081
S'ck'
p432
ta(I67081
I67143
S'gr'
p433
ta(I67143
I67203
S'gn'
p434
ta(I67203
I67261
S'ntl'
p435
ta(I67261
I67318
S'br'
p436
ta(I67318
I67374
S'sl'
p437
ta(I67374
I67429
S'ksh'
p438
ta(I67429
I67482
S'ld'
p439
ta(I67482
I67533
S'mbr'
p440
ta(I67533
I67580
S'rp'
p441
ta(I67580
I67626
S'yaa'
p442
ta(I67626
I67671
S'lv'
p443
ta(I67671
I67716
S'aya'
p444
ta(I67716
I67760
S'rf'
p445
ta(I67760
I67802
S'nl'
p446
ta(I67802
I67843
S'cr'
p447
ta(I67843
I67883
S'ngl'
p448
ta(I67883
I67923
S'cl'
p449
ta(I67923
I67962
S'yi'
p450
ta(I67962
I68001
S'pl'
p451
ta(I68001
I68040
S'mpr'
p452
ta(I68040
I68079
S'ght'
p453
ta(I68079
I68117
S'shh'
p454
ta(I68117
I68155
S'rb'
p455
ta(I68155
I68193
S'dd'
p456
ta(I68193
I68230
S'xc'
p457
ta(I68230
I68267
S'tm'
p458
ta(I68267
I68304
S'eo'
p459
ta(I68304
I68341
S'ae'
p460
ta(I68341
I68377
S'rch'
p461
ta(I68377
I68413
S'ppr'
p462
ta(I68413
I68449
S'nst'
p463
ta(I68449
I68484
S'xt'
p464
ta(I68484
I68519
S'shv'
p465
ta(I68519
I68554
S'nj'
p466
ta(I68554
I68589
S'dg'
p467
ta(I68589
I68623
S'mbl'
p468
ta(I68623
I68656
S'ngr'
p469
ta(I68656
I68689
S'dv'
p470
ta(I68689
I68722
S'dl'
p471
ta(I68722
I68754
S'ft'
p472
ta(I68754
I68785
S'sr'
p473
ta(I68785
I68816
S'rth'
p474
ta(I68816
I68846
S'tch'
p475
ta(I68846
I68876
S'scr'
p476
ta(I68876
I68905
S'nch'
p477
ta(I68905
I68934
S'kt'
p478
ta(I68934
I68963
S'ay'
p479
ta(I68963
I68991
S'ndr'
p480
ta(I68991
I69019
S'dm'
p481
ta(I69019
I69046
S'tl'
p482
ta(I69046
I69073
S'rk'
p483
ta(I69073
I69100
S'bs'
p484
ta(I69100
I69126
S'sm'
p485
ta(I69126
I69152
S'nstr'
p486
ta(I69152
I69178
S'nh'
p487
ta(I69178
I69204
S'eu'
p488
ta(I69204
I69229
S'iu'
p489
ta(I69229
I69253
S'ppl'
p490
ta(I69253
I69277
S'ndl'
p491
ta(I69277
I69301
S'ls'
p492
ta(I69301
I69325
S'gg'
p493
ta(I69325
I69348
S'stl'
p494
ta(I69348
I69371
S'shhn'
p495
ta(I69371
I69394
S'oe'
p496
ta(I69394
I69417
S'nq'
p497
ta(I69417
I69439
S'nsp'
p498
ta(I69439
I69461
S'nk'
p499
ta(I69461
I69483
S'nfl'
p500
ta(I69483
I69505
S'ncl'
p501
ta(I69505
I69527
S'fr'
p502
ta(I69527
I69549
S'aaya'
p503
ta(I69549
I69570
S'mpt'
p504
ta(I69570
I69591
S'fl'
p505
ta(I69591
I69612
S'bb'
p506
ta(I69612
I69632
S'xtr'
p507
ta(I69632
I69652
S'xh'
p508
ta(I69652
I69672
S'nz'
p509
ta(I69672
I69692
S'kr'
p510
ta(I69692
I69711
S'nm'
p511
ta(I69711
I69730
S'mn'
p512
ta(I69730
I69749
S'gh'
p513
ta(I69749
I69767
S'nr'
p514
ta(I69767
I69785
S'hm'
p515
ta(I69785
I69803
S'aye'
p516
ta(I69803
I69820
S'yu'
p517
ta(I69820
I69837
S'shch'
p518
ta(I69837
I69854
S'ph'
p519
ta(I69854
I69871
S'np'
p520
ta(I69871
I69888
S'lc'
p521
ta(I69888
I69905
S'kh'
p522
ta(I69905
I69922
S'dr'
p523
ta(I69922
I69938
S'shhth'
p524
ta(I69938
I69954
S'shht'
p525
ta(I69954
I69970
S'rw'
p526
ta(I69970
I69986
S'nct'
p527
ta(I69986
I70002
S'lf'
p528
ta(I70002
I70018
S'eou'
p529
ta(I70018
I70034
S'ddh'
p530
ta(I70034
I70049
S'yo'
p531
ta(I70049
I70064
S'xpl'
p532
ta(I70064
I70079
S'uie'
p533
ta(I70079
I70094
S'lp'
p534
ta(I70094
I70109
S'lk'
p535
ta(I70109
I70124
S'lg'
p536
ta(I70124
I70138
S'rbh'
p537
ta(I70138
I70152
S'oye'
p538
ta(I70152
I70166
S'lm'
p539
ta(I70166
I70180
S'iya'
p540
ta(I70180
I70194
S'cq'
p541
ta(I70194
I70208
S'bj'
p542
ta(I70208
I70221
S'ttr'
p543
ta(I70221
I70234
S'ttl'
p544
ta(I70234
I70247
S'tn'
p545
ta(I70247
I70260
S'shr'
p546
ta(I70260
I70273
S'sd'
p547
ta(I70273
I70286
S'rh'
p548
ta(I70286
I70299
S'ps'
p549
ta(I70299
I70312
S'nw'
p550
ta(I70312
I70324
S'xcl'
p551
ta(I70324
I70336
S'uou'
p552
ta(I70336
I70348
S'rsh'
p553
ta(I70348
I70360
S'oy'
p554
ta(I70360
I70372
S'mf'
p555
ta(I70372
I70384
S'ln'
p556
ta(I70384
I70396
S'cn'
p557
ta(I70396
I70408
S'bt'
p558
ta(I70408
I70420
S'bst'
p559
ta(I70420
I70432
S'bd'
p560
ta(I70432
I70443
S'wl'
p561
ta(I70443
I70454
S'tw'
p562
ta(I70454
I70465
S'shm'
p563
ta(I70465
I70476
S'rpl'
p564
ta(I70476
I70487
S'rj'
p565
ta(I70487
I70498
S'pn'
p566
ta(I70498
I70509
S'nkl'
p567
ta(I70509
I70520
S'ncr'
p568
ta(I70520
I70531
S'lth'
p569
ta(I70531
I70542
S'iyo'
p570
ta(I70542
I70553
S'dbh'
p571
ta(I70553
I70564
S'ayi'
p572
ta(I70564
I70574
S'uo'
p573
ta(I70574
I70584
S'sg'
p574
ta(I70584
I70594
S'rdh'
p575
ta(I70594
I70604
S'gl'
p576
ta(I70604
I70614
S'ghtl'
p577
ta(I70614
I70624
S'ghb'
p578
ta(I70624
I70634
S'ffl'
p579
ta(I70634
I70644
S'dn'
p580
ta(I70644
I70654
S'ayo'
p581
ta(I70654
I70663
S'ye'
p582
ta(I70663
I70672
S'wn'
p583
ta(I70672
I70681
S'sk'
p584
ta(I70681
I70690
S'sf'
p585
ta(I70690
I70699
S'rshh'
p586
ta(I70699
I70708
S'rpr'
p587
ta(I70708
I70717
S'oya'
p588
ta(I70717
I70726
S'nsc'
p589
ta(I70726
I70735
S'nb'
p590
ta(I70735
I70744
S'mbh'
p591
ta(I70744
I70753
S'dj'
p592
ta(I70753
I70762
S'ctl'
p593
ta(I70762
I70770
S'zzl'
p594
ta(I70770
I70778
S'xpr'
p595
ta(I70778
I70786
S'wh'
p596
ta(I70786
I70794
S'wd'
p597
ta(I70794
I70802
S'uya'
p598
ta(I70802
I70810
S'sth'
p599
ta(I70810
I70818
S'rst'
p600
ta(I70818
I70826
S'nsf'
p601
ta(I70826
I70834
S'iyu'
p602
ta(I70834
I70842
S'gm'
p603
ta(I70842
I70850
S'ghn'
p604
ta(I70850
I70858
S'eya'
p605
ta(I70858
I70866
S'ey'
p606
ta(I70866
I70874
S'ckn'
p607
ta(I70874
I70882
S'ckl'
p608
ta(I70882
I70889
S'yaya'
p609
ta(I70889
I70896
S'ssl'
p610
ta(I70896
I70903
S'spl'
p611
ta(I70903
I70910
S'sph'
p612
ta(I70910
I70917
S'sch'
p613
ta(I70917
I70924
S'rtm'
p614
ta(I70924
I70931
S'rsp'
p615
ta(I70931
I70938
S'nsh'
p616
ta(I70938
I70945
S'npr'
p617
ta(I70945
I70952
S'msh'
p618
ta(I70952
I70959
S'bstr'
p619
ta(I70959
I70965
S'wf'
p620
ta(I70965
I70971
S'vr'
p621
ta(I70971
I70977
S'ttv'
p622
ta(I70977
I70983
S'tp'
p623
ta(I70983
I70989
S'tf'
p624
ta(I70989
I70995
S'scl'
p625
ta(I70995
I71001
S'rtn'
p626
ta(I71001
I71007
S'rtl'
p627
ta(I71007
I71013
S'ntm'
p628
ta(I71013
I71019
S'nsw'
p629
ta(I71019
I71025
S'nfr'
p630
ta(I71025
I71031
S'ndh'
p631
ta(I71031
I71037
S'ms'
p632
ta(I71037
I71043
S'mh'
p633
ta(I71043
I71049
S'lph'
p634
ta(I71049
I71055
S'ddl'
p635
ta(I71055
I71061
S'chchh'
p636
ta(I71061
I71067
S'bbl'
p637
ta(I71067
I71073
S'aayu'
p638
ta(I71073
I71078
S'uyaa'
p639
ta(I71078
I71083
S'tv'
p640
ta(I71083
I71088
S'tpr'
p641
ta(I71088
I71093
S'tk'
p642
ta(I71093
I71098
S'thm'
p643
ta(I71098
I71103
S'thdr'
p644
ta(I71103
I71108
S'ssn'
p645
ta(I71108
I71113
S'sq'
p646
ta(I71113
I71118
S'sn'
p647
ta(I71118
I71123
S'rcl'
p648
ta(I71123
I71128
S'oyi'
p649
ta(I71128
I71133
S'nsm'
p650
ta(I71133
I71138
S'npl'
p651
ta(I71138
I71143
S'ngth'
p652
ta(I71143
I71148
S'ndm'
p653
ta(I71148
I71153
S'mph'
p654
ta(I71153
I71158
S'lb'
p655
ta(I71158
I71163
S'kshm'
p656
ta(I71163
I71168
S'ks'
p657
ta(I71168
I71173
S'ggl'
p658
ta(I71173
I71178
S'eau'
p659
ta(I71178
I71183
S'df'
p660
ta(I71183
I71188
S'bv'
p661
ta(I71188
I71193
S'btr'
p662
ta(I71193
I71198
S'bm'
p663
ta(I71198
I71203
S'bhr'
p664
ta(I71203
I71208
S'ayaa'
p665
ta(I71208
I71212
S'xcr'
p666
ta(I71212
I71216
S'uye'
p667
ta(I71216
I71220
S'uee'
p668
ta(I71220
I71224
S'uai'
p669
ta(I71224
I71228
S'tchm'
p670
ta(I71228
I71232
S'sv'
p671
ta(I71232
I71236
S'stm'
p672
ta(I71236
I71240
S'sgr'
p673
ta(I71240
I71244
S'rnm'
p674
ta(I71244
I71248
S'rml'
p675
ta(I71248
I71252
S'rfl'
p676
ta(I71252
I71256
S'rdn'
p677
ta(I71256
I71260
S'rbl'
p678
ta(I71260
I71264
S'oyo'
p679
ta(I71264
I71268
S'nx'
p680
ta(I71268
I71272
S'nthr'
p681
ta(I71272
I71276
S'nth'
p682
ta(I71276
I71280
S'nsl'
p683
ta(I71280
I71284
S'nscr'
p684
ta(I71284
I71288
S'ndn'
p685
ta(I71288
I71292
S'lthf'
p686
ta(I71292
I71296
S'lr'
p687
ta(I71296
I71300
S'lln'
p688
ta(I71300
I71304
S'ghl'
p689
ta(I71304
I71308
S'ggr'
p690
ta(I71308
I71312
S'ftl'
p691
ta(I71312
I71316
S'eyu'
p692
ta(I71316
I71320
S'eyi'
p693
ta(I71320
I71324
S'ddr'
p694
ta(I71324
I71328
S'ctr'
p695
ta(I71328
I71332
S'bsc'
p696
ta(I71332
I71336
S'ayu'
p697
ta(I71336
I71339
S'zz'
p698
ta(I71339
I71342
S'yuu'
p699
ta(I71342
I71345
S'xch'
p700
ta(I71345
I71348
S'ws'
p701
ta(I71348
I71351
S'tth'
p702
ta(I71351
I71354
S'thst'
p703
ta(I71354
I71357
S'thf'
p704
ta(I71357
I71360
S'tg'
p705
ta(I71360
I71363
S'stn'
p706
ta(I71363
I71366
S'ssm'
p707
ta(I71366
I71369
S'ssf'
p708
ta(I71369
I71372
S'spr'
p709
ta(I71372
I71375
S'shsh'
p710
ta(I71375
I71378
S'shn'
p711
ta(I71378
I71381
S'shhv'
p712
ta(I71381
I71384
S'sb'
p713
ta(I71384
I71387
S'rtt'
p714
ta(I71387
I71390
S'rthl'
p715
ta(I71390
I71393
S'rtf'
p716
ta(I71393
I71396
S'rldl'
p717
ta(I71396
I71399
S'rkm'
p718
ta(I71399
I71402
S'rdsh'
p719
ta(I71402
I71405
S'rdl'
p720
ta(I71405
I71408
S'pm'
p721
ta(I71408
I71411
S'ooe'
p722
ta(I71411
I71414
S'nspl'
p723
ta(I71414
I71417
S'nkn'
p724
ta(I71417
I71420
S'ngh'
p725
ta(I71420
I71423
S'ndf'
p726
ta(I71423
I71426
S'mv'
p727
ta(I71426
I71429
S'mst'
p728
ta(I71429
I71432
S'ldn'
p729
ta(I71432
I71435
S'kl'
p730
ta(I71435
I71438
S'kk'
p731
ta(I71438
I71441
S'jv'
p732
ta(I71441
I71444
S'jnj'
p733
ta(I71444
I71447
S'gv'
p734
ta(I71447
I71450
S'ghtf'
p735
ta(I71450
I71453
S'fth'
p736
ta(I71453
I71456
S'eei'
p737
ta(I71456
I71459
S'eea'
p738
ta(I71459
I71462
S'ctf'
p739
ta(I71462
I71465
S'chn'
p740
ta(I71465
I71468
S'bscr'
p741
ta(I71468
I71471
S'aaye'
p742
ta(I71471
I71473
S'yau'
p743
ta(I71473
I71475
S'yaayo'
p744
ta(I71475
I71477
S'xq'
p745
ta(I71477
I71479
S'wsp'
p746
ta(I71479
I71481
S'wnw'
p747
ta(I71481
I71483
S'wnl'
p748
ta(I71483
I71485
S'wkw'
p749
ta(I71485
I71487
S'tksh'
p750
ta(I71487
I71489
S'thr'
p751
ta(I71489
I71491
S'thh'
p752
ta(I71491
I71493
S'td'
p753
ta(I71493
I71495
S'tchw'
p754
ta(I71495
I71497
S'tb'
p755
ta(I71497
I71499
S'stv'
p756
ta(I71499
I71501
S'ssp'
p757
ta(I71501
I71503
S'ssh'
p758
ta(I71503
I71505
S'shl'
p759
ta(I71505
I71507
S'shhm'
p760
ta(I71507
I71509
S'shhk'
p761
ta(I71509
I71511
S'rtr'
p762
ta(I71511
I71513
S'rq'
p763
ta(I71513
I71515
S'rnst'
p764
ta(I71515
I71517
S'rdw'
p765
ta(I71517
I71519
S'rdhv'
p766
ta(I71519
I71521
S'pw'
p767
ta(I71521
I71523
S'pst'
p768
ta(I71523
I71525
S'pk'
p769
ta(I71525
I71527
S'oyu'
p770
ta(I71527
I71529
S'oui'
p771
ta(I71529
I71531
S'nwh'
p772
ta(I71531
I71533
S'ntw'
p773
ta(I71533
I71535
S'nsk'
p774
ta(I71535
I71537
S'nsgr'
p775
ta(I71537
I71539
S'nkf'
p776
ta(I71539
I71541
S'ngt'
p777
ta(I71541
I71543
S'ngm'
p778
ta(I71543
I71545
S'ngd'
p779
ta(I71545
I71547
S'ndsh'
p780
ta(I71547
I71549
S'nbr'
p781
ta(I71549
I71551
S'mps'
p782
ta(I71551
I71553
S'mphl'
p783
ta(I71553
I71555
S'ml'
p784
ta(I71555
I71557
S'lw'
p785
ta(I71557
I71559
S'ltr'
p786
ta(I71559
I71561
S'ltl'
p787
ta(I71561
I71563
S'lq'
p788
ta(I71563
I71565
S'lpl'
p789
ta(I71565
I71567
S'llf'
p790
ta(I71567
I71569
S'lgr'
p791
ta(I71569
I71571
S'ldr'
p792
ta(I71571
I71573
S'ldl'
p793
ta(I71573
I71575
S'ldb'
p794
ta(I71575
I71577
S'lcl'
p795
ta(I71577
I71579
S'kn'
p796
ta(I71579
I71581
S'iyaa'
p797
ta(I71581
I71583
S'iiyai'
p798
ta(I71583
I71585
S'iiyaa'
p799
ta(I71585
I71587
S'iiya'
p800
ta(I71587
I71589
S'iae'
p801
ta(I71589
I71591
S'hsv'
p802
ta(I71591
I71593
S'hkh'
p803
ta(I71593
I71595
S'gsh'
p804
ta(I71595
I71597
S'ghtn'
p805
ta(I71597
I71599
S'eye'
p806
ta(I71599
I71601
S'eyaa'
p807
ta(I71601
I71603
S'dst'
p808
ta(I71603
I71605
S'ds'
p809
ta(I71605
I71607
S'dcl'
p810
ta(I71607
I71609
S'dc'
p811
ta(I71609
I71611
S'db'
p812
ta(I71611
I71613
S'ctn'
p813
ta(I71613
I71615
S'cs'
p814
ta(I71615
I71617
S'ckw'
p815
ta(I71617
I71619
S'cksm'
p816
ta(I71619
I71621
S'cks'
p817
ta(I71621
I71623
S'chl'
p818
ta(I71623
I71625
S'ccl'
p819
ta(I71625
I71627
S'btl'
p820
ta(I71627
I71629
S'btf'
p821
ta(I71629
I71631
S'bdh'
p822
ta(I71631
I71633
S'ayoi'
p823
ta(I71633
I71635
S'ao'
p824
ta(I71635
I71637
S'aie'
p825
ta(I71637
I71639
S'aayaa'
p826
ta(I71639
I71640
S'zv'
p827
ta(I71640
I71641
S'zq'
p828
ta(I71641
I71642
S'yeya'
p829
ta(I71642
I71643
S'yei'
p830
ta(I71643
I71644
S'yai'
p831
ta(I71644
I71645
S'yaaye'
p832
ta(I71645
I71646
S'yaaya'
p833
ta(I71646
I71647
S'xf'
p834
ta(I71647
I71648
S'wt'
p835
ta(I71648
I71649
S'wst'
p836
ta(I71649
I71650
S'wsl'
p837
ta(I71650
I71651
S'wsb'
p838
ta(I71651
I71652
S'wr'
p839
ta(I71652
I71653
S'wp'
p840
ta(I71653
I71654
S'wnr'
p841
ta(I71654
I71655
S'wm'
p842
ta(I71655
I71656
S'wg'
p843
ta(I71656
I71657
S'wdn'
p844
ta(I71657
I71658
S'wc'
p845
ta(I71658
I71659
S'wb'
p846
ta(I71659
I71660
S'vl'
p847
ta(I71660
I71661
S'vh'
p848
ta(I71661
I71662
S'uyu'
p849
ta(I71662
I71663
S'uyi'
p850
ta(I71663
I71664
S'uy'
p851
ta(I71664
I71665
S'uoya'
p852
ta(I71665
I71666
S'uia'
p853
ta(I71666
I71667
S'uea'
p854
ta(I71667
I71668
S'tsw'
p855
ta(I71668
I71669
S'tsp'
p856
ta(I71669
I71670
S'tsk'
p857
ta(I71670
I71671
S'tsh'
p858
ta(I71671
I71672
S'ths'
p859
ta(I71672
I71673
S'thc'
p860
ta(I71673
I71674
S'tchf'
p861
ta(I71674
I71675
S'sw'
p862
ta(I71675
I71676
S'stw'
p863
ta(I71676
I71677
S'stf'
p864
ta(I71677
I71678
S'stc'
p865
ta(I71678
I71679
S'ssth'
p866
ta(I71679
I71680
S'sj'
p867
ta(I71680
I71681
S'shp'
p868
ta(I71681
I71682
S'shhp'
p869
ta(I71682
I71683
S'shchh'
p870
ta(I71683
I71684
S'shb'
p871
ta(I71684
I71685
S'rz'
p872
ta(I71685
I71686
S'rwh'
p873
ta(I71686
I71687
S'rtwr'
p874
ta(I71687
I71688
S'rtsh'
p875
ta(I71688
I71689
S'rthw'
p876
ta(I71689
I71690
S'rthq'
p877
ta(I71690
I71691
S'rthpl'
p878
ta(I71691
I71692
S'rtg'
p879
ta(I71692
I71693
S'rshl'
p880
ta(I71693
I71694
S'rsb'
p881
ta(I71694
I71695
S'rpt'
p882
ta(I71695
I71696
S'rpn'
p883
ta(I71696
I71697
S'rph'
p884
ta(I71697
I71698
S'rnw'
p885
ta(I71698
I71699
S'rnn'
p886
ta(I71699
I71700
S'rnl'
p887
ta(I71700
I71701
S'rnf'
p888
ta(I71701
I71702
S'rmn'
p889
ta(I71702
I71703
S'rmh'
p890
ta(I71703
I71704
S'rlh'
p891
ta(I71704
I71705
S'rksh'
p892
ta(I71705
I71706
S'rks'
p893
ta(I71706
I71707
S'rkl'
p894
ta(I71707
I71708
S'rgr'
p895
ta(I71708
I71709
S'rgh'
p896
ta(I71709
I71710
S'rdr'
p897
ta(I71710
I71711
S'rdhr'
p898
ta(I71711
I71712
S'rddh'
p899
ta(I71712
I71713
S'rct'
p900
ta(I71713
I71714
S'rcr'
p901
ta(I71714
I71715
S'rchn'
p902
ta(I71715
I71716
S'rchm'
p903
ta(I71716
I71717
S'rbrhm'
p904
ta(I71717
I71718
S'pz'
p905
ta(I71718
I71719
S'ptr'
p906
ta(I71719
I71720
S'ptl'
p907
ta(I71720
I71721
S'prh'
p908
ta(I71721
I71722
S'phr'
p909
ta(I71722
I71723
S'pd'
p910
ta(I71723
I71724
S'pb'
p911
ta(I71724
I71725
S'oyou'
p912
ta(I71725
I71726
S'oie'
p913
ta(I71726
I71727
S'nthl'
p914
ta(I71727
I71728
S'nspr'
p915
ta(I71728
I71729
S'nph'
p916
ta(I71729
I71730
S'nksg'
p917
ta(I71730
I71731
S'ngthw'
p918
ta(I71731
I71732
S'ngs'
p919
ta(I71732
I71733
S'ngf'
p920
ta(I71733
I71734
S'ndwr'
p921
ta(I71734
I71735
S'ndw'
p922
ta(I71735
I71736
S'ndt'
p923
ta(I71736
I71737
S'nds'
p924
ta(I71737
I71738
S'ndk'
p925
ta(I71738
I71739
S'ndd'
p926
ta(I71739
I71740
S'nctl'
p927
ta(I71740
I71741
S'nchm'
p928
ta(I71741
I71742
S'nbl'
p929
ta(I71742
I71743
S'mstr'
p930
ta(I71743
I71744
S'msth'
p931
ta(I71744
I71745
S'msp'
p932
ta(I71745
I71746
S'msgr'
p933
ta(I71746
I71747
S'mr'
p934
ta(I71747
I71748
S'mptn'
p935
ta(I71748
I71749
S'mptl'
p936
ta(I71749
I71750
S'mpk'
p937
ta(I71750
I71751
S'md'
p938
ta(I71751
I71752
S'ltp'
p939
ta(I71752
I71753
S'lst'
p940
ta(I71753
I71754
S'lpt'
p941
ta(I71754
I71755
S'lpn'
p942
ta(I71755
I71756
S'lpf'
p943
ta(I71756
I71757
S'lmsh'
p944
ta(I71757
I71758
S'lmn'
p945
ta(I71758
I71759
S'lml'
p946
ta(I71759
I71760
S'llm'
p947
ta(I71760
I71761
S'llb'
p948
ta(I71761
I71762
S'lfw'
p949
ta(I71762
I71763
S'lfth'
p950
ta(I71763
I71764
S'lfp'
p951
ta(I71764
I71765
S'ldw'
p952
ta(I71765
I71766
S'ldsh'
p953
ta(I71766
I71767
S'ldh'
p954
ta(I71767
I71768
S'kw'
p955
ta(I71768
I71769
S'ktr'
p956
ta(I71769
I71770
S'ksv'
p957
ta(I71770
I71771
S'ksp'
p958
ta(I71771
I71772
S'km'
p959
ta(I71772
I71773
S'kf'
p960
ta(I71773
I71774
S'jnch'
p961
ta(I71774
I71775
S'jj'
p962
ta(I71775
I71776
S'jb'
p963
ta(I71776
I71777
S'iyai'
p964
ta(I71777
I71778
S'iiyuu'
p965
ta(I71778
I71779
S'ieu'
p966
ta(I71779
I71780
S'hsth'
p967
ta(I71780
I71781
S'hsh'
p968
ta(I71781
I71782
S'hp'
p969
ta(I71782
I71783
S'ghtw'
p970
ta(I71783
I71784
S'ghtsh'
p971
ta(I71784
I71785
S'ghth'
p972
ta(I71785
I71786
S'ghr'
p973
ta(I71786
I71787
S'ghf'
p974
ta(I71787
I71788
S'gbh'
p975
ta(I71788
I71789
S'gb'
p976
ta(I71789
I71790
S'fwh'
p977
ta(I71790
I71791
S'ftw'
p978
ta(I71791
I71792
S'ftn'
p979
ta(I71792
I71793
S'fst'
p980
ta(I71793
I71794
S'ffspr'
p981
ta(I71794
I71795
S'ffs'
p982
ta(I71795
I71796
S'ffr'
p983
ta(I71796
I71797
S'ffn'
p984
ta(I71797
I71798
S'ffm'
p985
ta(I71798
I71799
S'eyo'
p986
ta(I71799
I71800
S'dw'
p987
ta(I71800
I71801
S'dt'
p988
ta(I71801
I71802
S'dsl'
p989
ta(I71802
I71803
S'dsh'
p990
ta(I71803
I71804
S'dhv'
p991
ta(I71804
I71805
S'dgm'
p992
ta(I71805
I71806
S'cm'
p993
ta(I71806
I71807
S'ckr'
p994
ta(I71807
I71808
S'ckm'
p995
ta(I71808
I71809
S'ckh'
p996
ta(I71809
I71810
S'chs'
p997
ta(I71810
I71811
S'chr'
p998
ta(I71811
I71812
S'chm'
p999
ta(I71812
I71813
S'cd'
p1000
ta(I71813
I71814
S'ccr'
p1001
ta(I71814
I71815
S'cch'
p1002
ta(I71815
I71816
S'bn'
p1003
ta(I71816
I71817
S'bg'
p1004
ta(I71817
I71818
S'bcd'
p1005
ta(I71818
I71819
S'bbr'
p1006
ta(I71819
I71820
S'aayo'
p1007
ta(I71820
I71821
S'aayaayaa'
p1008
tas.