(dp1
S'endings'
p2
(lp3
(I1
I50613
S'e'
ta(I50613
I65668
S'r'
ta(I65668
I78597
S'nd'
p4
ta(I78597
I91111
S's'
ta(I91111
I103468
S'd'
ta(I103468
I115448
S'n'
ta(I115448
I125668
S'y'
ta(I125668
I135680
S't'
ta(I135680
I143410
S'ng'
p5
ta(I143410
I147808
S'ch'
p6
ta(I147808
I151690
S'll'
p7
ta(I151690
I155446
S'l'
ta(I155446
I158851
S'm'
ta(I158851
I161926
S'nt'
p8
ta(I161926
I164643
S'st'
p9
ta(I164643
I167296
S'th'
p10
ta(I167296
I169765
S'o'
ta(I169765
I172052
S'ld'
p11
ta(I172052
I173873
S'w'
ta(I173873
I175535
S'ns'
p12
ta(I175535
I177114
S'rs'
p13
ta(I177114
I178607
S'ss'
p14
ta(I178607
I179969
S'ey'
p15
ta(I179969
I181242
S'ay'
p16
ta(I181242
I182493
S'ts'
p17
ta(I182493
I183574
S'ght'
p18
ta(I183574
I184507
S'ct'
p19
ta(I184507
I185305
S'nts'
p20
ta(I185305
I186085
S'rt'
p21
ta(I186085
I186864
S'you'
p22
ta(I186864
I187561
S'c'
ta(I187561
I188219
S'ee'
p23
ta(I188219
I188852
S'gh'
p24
ta(I188852
I189462
S'wn'
p25
ta(I189462
I189979
S'rd'
p26
ta(I189979
I190485
S'nds'
p27
ta(I190485
I190931
S'p'
ta(I190931
I191367
S'ls'
p28
ta(I191367
I191782
S'sh'
p29
ta(I191782
I192197
S'k'
ta(I192197
I192610
S'ngs'
p30
ta(I192610
I193021
S'ck'
p31
ta(I193021
I193407
S'rm'
p32
ta(I193407
I193758
S'ue'
p33
ta(I193758
I194105
S'rst'
p34
ta(I194105
I194442
S'rk'
p35
ta(I194442
I194771
S'lf'
p36
ta(I194771
I195091
S'rn'
p37
ta(I195091
I195366
S'ds'
p38
ta(I195366
I195640
S'lt'
p39
ta(I195640
I195902
S'ws'
p40
ta(I195902
I196164
S'pt'
p41
ta(I196164
I196416
S'nk'
p42
ta(I196416
I196647
S'ms'
p43
ta(I196647
I196877
S'rts'
p44
ta(I196877
I197106
S'x'
ta(I197106
I197321
S'cts'
p45
ta(I197321
I197526
S'sts'
p46
ta(I197526
I197730
S'rds'
p47
ta(I197730
I197922
S'rth'
p48
ta(I197922
I198106
S'ff'
p49
ta(I198106
I198287
S'ps'
p50
ta(I198287
I198465
S'oo'
p51
ta(I198465
I198635
S'ft'
p52
ta(I198635
I198792
S'xt'
p53
ta(I198792
I198934
S'lls'
p54
ta(I198934
I199073
S'f'
ta(I199073
I199210
S'lth'
p55
ta(I199210
I199338
S'a'
ta(I199338
I199460
S'nch'
p56
ta(I199460
I199581
S'nst'
p57
ta(I199581
I199686
S'ks'
p58
ta(I199686
I199783
S'nks'
p59
ta(I199783
I199876
S'oy'
p60
ta(I199876
I199967
S'rks'
p61
ta(I199967
I200056
S'lk'
p62
ta(I200056
I200144
S'ngst'
p63
ta(I200144
I200226
S'sk'
p64
ta(I200226
I200308
S'rg'
p65
ta(I200308
I200388
S'gn'
p66
ta(I200388
I200464
S'rns'
p67
ta(I200464
I200540
S'rms'
p68
ta(I200540
I200615
S'cks'
p69
ta(I200615
I200681
S'ngth'
p70
ta(I200681
I200745
S'lts'
p71
ta(I200745
I200808
S'g'
ta(I200808
I200868
S'lst'
p72
ta(I200868
I200928
S'ie'
p73
ta(I200928
I200987
S'ea'
p74
ta(I200987
I201042
S'tch'
p75
ta(I201042
I201097
S'ghts'
p76
ta(I201097
I201149
S'b'
ta(I201149
I201200
S'rld'
p77
ta(I201200
I201244
S'lds'
p78
ta(I201244
I201281
S'mpt'
p79
ta(I201281
I201318
S'gs'
p80
ta(I201318
I201354
S'dd'
p81
ta(I201354
I201389
S'cs'
p82
ta(I201389
I201422
S'rch'
p83
ta(I201422
I201454
S'mp'
p84
ta(I201454
I201485
S'ia'
p85
ta(I201485
I201514
S'lp'
p86
ta(I201514
I201542
S'nth'
p87
ta(I201542
I201569
S'xts'
p88
ta(I201569
I201595
S'rls'
p89
ta(I201595
I201621
S'rl'
p90
ta(I201621
I201647
S'oe'
p91
ta(I201647
I201672
S'sm'
p92
ta(I201672
I201696
S'nths'
p93
ta(I201696
I201720
S'bt'
p94
ta(I201720
I201741
S'ths'
p95
ta(I201741
I201761
S'cwt'
p96
ta(I201761
I201780
S'rp'
p97
ta(I201780
I201799
S'rmth'
p98
ta(I201799
I201818
S'ou'
p99
ta(I201818
I201837
S'eye'
p100
ta(I201837
I201855
S'mps'
p101
ta(I201855
I201873
S'mb'
p102
ta(I201873
I201890
S'nct'
p103
ta(I201890
I201907
S'mn'
p104
ta(I201907
I201924
S'i'
ta(I201924
I201941
S'fts'
p105
ta(I201941
I201957
S'dth'
p106
ta(I201957
I201972
S'rb'
p107
ta(I201972
I201987
S'lph'
p108
ta(I201987
I202002
S'lm'
p109
ta(I202002
I202017
S'lbs'
p110
ta(I202017
I202031
S'uy'
p111
ta(I202031
I202044
S'pth'
p112
ta(I202044
I202057
S'hn'
p113
ta(I202057
I202069
S'wns'
p114
ta(I202069
I202081
S'pts'
p115
ta(I202081
I202093
S'mbs'
p116
ta(I202093
I202104
S'wl'
p117
ta(I202104
I202115
S'lks'
p118
ta(I202115
I202126
S'fs'
p119
ta(I202126
I202137
S'bs'
p120
ta(I202137
I202147
S'sks'
p121
ta(I202147
I202157
S'io'
p122
ta(I202157
I202167
S'gns'
p123
ta(I202167
I202177
S'fth'
p124
ta(I202177
I202187
S'dst'
p125
ta(I202187
I202196
S'rths'
p126
ta(I202196
I202205
S'rnt'
p127
ta(I202205
I202213
S'ghs'
p128
ta(I202213
I202221
S'dds'
p129
ta(I202221
I202228
S'wth'
p130
ta(I202228
I202235
S'ui'
p131
ta(I202235
I202242
S'ii'
p132
ta(I202242
I202249
S'bts'
p133
ta(I202249
I202255
S'mpts'
p134
ta(I202255
I202260
S'tts'
p135
ta(I202260
I202265
S'lps'
p136
ta(I202265
I202270
S'h'
ta(I202270
I202275
S'ggs'
p137
ta(I202275
I202280
S'dths'
p138
ta(I202280
I202284
S'ye'
p139
ta(I202284
I202288
S'xth'
p140
ta(I202288
I202292
S'wls'
p141
ta(I202292
I202296
S'rf'
p142
ta(I202296
I202300
S'ntz'
p143
ta(I202300
I202304
S'ngths'
p144
ta(I202304
I202308
S'nc'
p145
ta(I202308
I202312
S'ftp'
p146
ta(I202312
I202316
S'ai'
p147
ta(I202316
I202320
S'ae'
p148
ta(I202320
I202323
S'yea'
p149
ta(I202323
I202326
S'wd'
p150
ta(I202326
I202329
S'sp'
p151
ta(I202329
I202332
S'sms'
p152
ta(I202332
I202335
S'rr'
p153
ta(I202335
I202338
S'pmb'
p154
ta(I202338
I202341
S'ph'
p155
ta(I202341
I202344
S'ncts'
p156
ta(I202344
I202347
S'mphs'
p157
ta(I202347
I202350
S'lb'
p158
ta(I202350
I202353
S'gg'
p159
ta(I202353
I202356
S'ffs'
p160
ta(I202356
I202359
S'eau'
p161
ta(I202359
I202361
S'u'
ta(I202361
I202363
S'tt'
p162
ta(I202363
I202365
S'rv'
p163
ta(I202365
I202367
S'rps'
p164
ta(I202367
I202369
S'rbs'
p165
ta(I202369
I202371
S'pths'
p166
ta(I202371
I202373
S'oya'
p167
ta(I202373
I202375
S'nn'
p168
ta(I202375
I202377
S'ncs'
p169
ta(I202377
I202379
S'mrs'
p170
ta(I202379
I202381
S'mns'
p171
ta(I202381
I202383
S'lms'
p172
ta(I202383
I202385
S'lfth'
p173
ta(I202385
I202387
S'gm'
p174
ta(I202387
I202389
S'ghth'
p175
ta(I202389
I202391
S'chs'
p176
ta(I202391
I202392
S'z'
ta(I202392
I202393
S'wds'
p177
ta(I202393
I202394
S'v'
ta(I202394
I202395
S'tv'
p178
ta(I202395
I202396
S'tc'
p179
ta(I202396
I202397
S'ssrs'
p180
ta(I202397
I202398
S'rsts'
p181
ta(I202398
I202399
S'rsh'
p182
ta(I202399
I202400
S'rlds'
p183
ta(I202400
I202401
S'rfs'
p184
ta(I202401
I202402
S'rc'
p185
ta(I202402
I202403
S'pp'
p186
ta(I202403
I202404
S'phs'
p187
ta(I202404
I202405
S'nns'
p188
ta(I202405
I202406
S'lch'
p189
ta(I202406
I202407
S'iee'
p190
ta(I202407
I202408
S'hl'
p191
ta(I202408
I202409
S'ghths'
p192
ta(I202409
I202410
S'eii'
p193
ta(I202410
I202411
S'cr'
p194
ta(I202411
I202412
S'blv'
p195
ta(I202412
I202413
S'ayey'
p196
tasS'beginnings'
p197
(lp198
(I1
I35307
S'th'
p199
ta(I35307
I58589
S'a'
ta(I58589
I68266
S'w'
ta(I68266
I77481
S'm'
ta(I77481
I86213
S'c'
ta(I86213
I94890
S'h'
ta(I94890
I103232
S's'
ta(I103232
I111262
S'f'
ta(I111262
I117253
S'wh'
p200
ta(I117253
I123037
S'b'
ta(I123037
I128743
S'e'
ta(I128743
I134215
S'i'
ta(I134215
I139648
S'p'
ta(I139648
I145067
S'r'
ta(I145067
I150393
S'o'
ta(I150393
I155622
S'd'
ta(I155622
I160394
S'l'
ta(I160394
I164944
S'n'
ta(I164944
I168467
S'pr'
p201
ta(I168467
I171624
S't'
ta(I171624
I174048
S'u'
ta(I174048
I176458
S'fr'
p202
ta(I176458
I178674
S'g'
ta(I178674
I180809
S'sh'
p203
ta(I180809
I182645
S'v'
ta(I182645
I184037
S'st'
p204
ta(I184037
I185338
S'ou'
p205
ta(I185338
I186636
S'ch'
p206
ta(I186636
I187886
S'gr'
p207
ta(I187886
I188780
S'ea'
p208
ta(I188780
I189652
S'tr'
p209
ta(I189652
I190438
S'pl'
p210
ta(I190438
I191161
S'thr'
p211
ta(I191161
I191833
S'k'
ta(I191833
I192490
S'br'
p212
ta(I192490
I193140
S'tw'
p213
ta(I193140
I193713
S'cl'
p214
ta(I193713
I194282
S'you'
p215
ta(I194282
I194835
S'dr'
p216
ta(I194835
I195358
S'q'
ta(I195358
I195867
S'j'
ta(I195867
I196363
S'sp'
p217
ta(I196363
I196826
S'sm'
p218
ta(I196826
I197272
S'ai'
p219
ta(I197272
I197702
S'str'
p220
ta(I197702
I198035
S'fl'
p221
ta(I198035
I198354
S'kn'
p222
ta(I198354
I198661
S'bl'
p223
ta(I198661
I198917
S'cr'
p224
ta(I198917
I199133
S'sc'
p225
ta(I199133
I199343
S'sl'
p226
ta(I199343
I199551
S'ye'
p227
ta(I199551
I199755
S'ei'
p228
ta(I199755
I199954
S'yea'
p229
ta(I199954
I200138
S'wr'
p230
ta(I200138
I200310
S'gl'
p231
ta(I200310
I200479
S'sk'
p232
ta(I200479
I200613
S'ph'
p233
ta(I200613
I200734
S'chr'
p234
ta(I200734
I200850
S'au'
p235
ta(I200850
I200934
S'eye'
p236
ta(I200934
I201013
S'sw'
p237
ta(I201013
I201091
S'spr'
p238
ta(I201091
I201153
S'scr'
p239
ta(I201153
I201207
S'ya'
p240
ta(I201207
I201259
S'sq'
p241
ta(I201259
I201303
S'sch'
p242
ta(I201303
I201346
S'oi'
p243
ta(I201346
I201375
S'yie'
p244
ta(I201375
I201402
S'sn'
p245
ta(I201402
I201426
S'shr'
p246
ta(I201426
I201446
S'dw'
p247
ta(I201446
I201460
S'spl'
p248
ta(I201460
I201474
S'eu'
p249
ta(I201474
I201486
S'sph'
p250
ta(I201486
I201497
S'oa'
p251
ta(I201497
I201507
S'yo'
p252
ta(I201507
I201516
S'z'
ta(I201516
I201523
S'chl'
p253
ta(I201523
I201529
S'rh'
p254
ta(I201529
I201535
S'ae'
p255
ta(I201535
I201540
S'kl'
p256
ta(I201540
I201545
S'gh'
p257
ta(I201545
I201549
S'phr'
p258
ta(I201549
I201552
S'phl'
p259
ta(I201552
I201555
S'oy'
p260
ta(I201555
I201558
S'io'
p261
ta(I201558
I201560
S'x'
ta(I201560
I201561
S'yeo'
p262
ta(I201561
I201562
S'thw'
p263
ta(I201562
I201563
S'phth'
p264
ta(I201563
I201564
S'mg'
p265
ta(I201564
I201565
S'gn'
p266
ta(I201565
I201566
S'chrm'
p267
ta(I201566
I201567
S'ao'
p268
ta(I201567
I201568
S'aa'
p269
tasS'medials'
p270
(lp271
(I1
I63513
S'e'
ta(I63513
I108071
S'i'
ta(I108071
I148013
S'a'
ta(I148013
I182632
S'o'
ta(I182632
I198197
S'r'
ta(I198197
I213232
S'u'
ta(I213232
I223160
S't'
ta(I223160
I231670
S'n'
ta(I231670
I239839
S'v'
ta(I239839
I247263
S'm'
ta(I247263
I254570
S's'
ta(I254570
I260496
S'c'
ta(I260496
I266332
S'ou'
p272
ta(I266332
I271740
S'l'
ta(I271740
I276972
S'ea'
p273
ta(I276972
I281370
S'd'
ta(I281370
I285455
S'io'
p274
ta(I285455
I288869
S'nt'
p275
ta(I288869
I291820
S'p'
ta(I291820
I294640
S'ee'
p276
ta(I294640
I297269
S'th'
p277
ta(I297269
I299851
S'ie'
p278
ta(I299851
I302327
S'ai'
p279
ta(I302327
I304717
S'll'
p280
ta(I304717
I307007
S'nc'
p281
ta(I307007
I309236
S'oo'
p282
ta(I309236
I311345
S'g'
ta(I311345
I313362
S'ei'
p283
ta(I313362
I315369
S'st'
p284
ta(I315369
I317302
S'nd'
p285
ta(I317302
I319197
S'ct'
p286
ta(I319197
I321084
S'rt'
p287
ta(I321084
I322913
S'f'
ta(I322913
I324704
S'k'
ta(I324704
I326448
S'bl'
p288
ta(I326448
I328098
S'ss'
p289
ta(I328098
I329672
S'b'
ta(I329672
I330948
S'tt'
p290
ta(I330948
I332083
S'w'
ta(I332083
I333205
S'ua'
p291
ta(I333205
I334322
S'ff'
p292
ta(I334322
I335416
S'ns'
p293
ta(I335416
I336487
S'ia'
p294
ta(I336487
I337505
S'ui'
p295
ta(I337505
I338410
S'rs'
p296
ta(I338410
I339251
S'mp'
p297
ta(I339251
I340090
S'q'
ta(I340090
I340913
S'rr'
p298
ta(I340913
I341725
S'pp'
p299
ta(I341725
I342528
S'ng'
p300
ta(I342528
I343320
S'x'
ta(I343320
I344097
S'rg'
p301
ta(I344097
I344829
S'oi'
p302
ta(I344829
I345507
S'ft'
p303
ta(I345507
I346178
S'rm'
p304
ta(I346178
I346826
S'mm'
p305
ta(I346826
I347470
S'cc'
p306
ta(I347470
I348113
S'y'
ta(I348113
I348752
S'rn'
p307
ta(I348752
I349381
S'nl'
p308
ta(I349381
I350001
S'mpl'
p309
ta(I350001
I350594
S'ue'
p310
ta(I350594
I351183
S'rc'
p311
ta(I351183
I351761
S'au'
p312
ta(I351761
I352330
S'iou'
p313
ta(I352330
I352885
S'mb'
p314
ta(I352885
I353420
S'rv'
p315
ta(I353420
I353936
S'rd'
p316
ta(I353936
I354450
S'sh'
p317
ta(I354450
I354958
S'nn'
p318
ta(I354958
I355463
S'ch'
p319
ta(I355463
I355958
S'rl'
p320
ta(I355958
I356431
S'ntr'
p321
ta(I356431
I356895
S'lt'
p322
ta(I356895
I357332
S'xp'
p323
ta(I357332
I357765
S'sp'
p324
ta(I357765
I358189
S'rf'
p325
ta(I358189
I358610
S'ls'
p326
ta(I358610
I359030
S'nv'
p327
ta(I359030
I359445
S'pl'
p328
ta(I359445
I359853
S'nst'
p329
ta(I359853
I360252
S'ntl'
p330
ta(I360252
I360647
S'ppl'
p331
ta(I360647
I361018
S'ay'
p332
ta(I361018
I361386
S'ttl'
p333
ta(I361386
I361745
S'oa'
p334
ta(I361745
I362083
S'nf'
p335
ta(I362083
I362416
S'str'
p336
ta(I362416
I362733
S'lv'
p337
ta(I362733
I363043
S'z'
ta(I363043
I363342
S'cl'
p338
ta(I363342
I363622
S'sc'
p339
ta(I363622
I363891
S'gr'
p340
ta(I363891
I364151
S'xc'
p341
ta(I364151
I364411
S'dv'
p342
ta(I364411
I364660
S'ldr'
p343
ta(I364660
I364907
S'xt'
p344
ta(I364907
I365153
S'mpr'
p345
ta(I365153
I365392
S'ngl'
p346
ta(I365392
I365629
S'dd'
p347
ta(I365629
I365859
S'pt'
p348
ta(I365859
I366089
S'bj'
p349
ta(I366089
I366316
S'ndr'
p350
ta(I366316
I366541
S'ld'
p351
ta(I366541
I366748
S'lw'
p352
ta(I366748
I366955
S'j'
ta(I366955
I367161
S'rk'
p353
ta(I367161
I367363
S'ncr'
p354
ta(I367363
I367565
S'dg'
p355
ta(I367565
I367763
S'pr'
p356
ta(I367763
I367957
S'oye'
p357
ta(I367957
I368151
S'nj'
p358
ta(I368151
I368343
S'cr'
p359
ta(I368343
I368533
S'lm'
p360
ta(I368533
I368719
S'yi'
p361
ta(I368719
I368903
S'tw'
p362
ta(I368903
I369086
S'rp'
p363
ta(I369086
I369266
S'ms'
p364
ta(I369266
I369442
S'gn'
p365
ta(I369442
I369616
S'nstr'
p366
ta(I369616
I369782
S'rb'
p367
ta(I369782
I369939
S'oe'
p368
ta(I369939
I370092
S'rch'
p369
ta(I370092
I370245
S'nch'
p370
ta(I370245
I370398
S'eo'
p371
ta(I370398
I370547
S'gh'
p372
ta(I370547
I370693
S'bs'
p373
ta(I370693
I370837
S'ght'
p374
ta(I370837
I370981
S'ck'
p375
ta(I370981
I371123
S'ctl'
p376
ta(I371123
I371257
S'h'
ta(I371257
I371389
S'lth'
p377
ta(I371389
I371520
S'sl'
p378
ta(I371520
I371650
S'oy'
p379
ta(I371650
I371779
S'xtr'
p380
ta(I371779
I371907
S'nfl'
p381
ta(I371907
I372032
S'rkm'
p382
ta(I372032
I372150
S'tr'
p383
ta(I372150
I372267
S'tl'
p384
ta(I372267
I372383
S'dl'
p385
ta(I372383
I372493
S'tch'
p386
ta(I372493
I372602
S'ncl'
p387
ta(I372602
I372707
S'wl'
p388
ta(I372707
I372809
S'fl'
p389
ta(I372809
I372910
S'dm'
p390
ta(I372910
I373010
S'rth'
p391
ta(I373010
I373108
S'ppr'
p392
ta(I373108
I373205
S'mpt'
p393
ta(I373205
I373301
S'ts'
p394
ta(I373301
I373395
S'br'
p395
ta(I373395
I373488
S'nb'
p396
ta(I373488
I373580
S'mf'
p397
ta(I373580
I373671
S'bst'
p398
ta(I373671
I373760
S'rw'
p399
ta(I373760
I373846
S'xh'
p400
ta(I373846
I373932
S'scr'
p401
ta(I373932
I374017
S'nsw'
p402
ta(I374017
I374102
S'mst'
p403
ta(I374102
I374186
S'rh'
p404
ta(I374186
I374269
S'scl'
p405
ta(I374269
I374351
S'gg'
p406
ta(I374351
I374431
S'lc'
p407
ta(I374431
I374510
S'nh'
p408
ta(I374510
I374589
S'ngr'
p409
ta(I374589
I374668
S'cq'
p410
ta(I374668
I374746
S'eau'
p411
ta(I374746
I374821
S'mbl'
p412
ta(I374821
I374894
S'lr'
p413
ta(I374894
I374967
S'bb'
p414
ta(I374967
I375039
S'ndl'
p415
ta(I375039
I375111
S'bt'
p416
ta(I375111
I375181
S'rst'
p417
ta(I375181
I375250
S'shm'
p418
ta(I375250
I375319
S'nct'
p419
ta(I375319
I375384
S'lthf'
p420
ta(I375384
I375449
S'gl'
p421
ta(I375449
I375513
S'nk'
p422
ta(I375513
I375576
S'nq'
p423
ta(I375576
I375636
S'xpr'
p424
ta(I375636
I375696
S'tm'
p425
ta(I375696
I375755
S'sk'
p426
ta(I375755
I375810
S'mn'
p427
ta(I375810
I375863
S'xcl'
p428
ta(I375863
I375914
S'iu'
p429
ta(I375914
I375965
S'ghl'
p430
ta(I375965
I376015
S'lk'
p431
ta(I376015
I376065
S'aye'
p432
ta(I376065
I376113
S'stl'
p433
ta(I376113
I376161
S'nsp'
p434
ta(I376161
I376208
S'nsc'
p435
ta(I376208
I376255
S'df'
p436
ta(I376255
I376298
S'ayi'
p437
ta(I376298
I376340
S'wh'
p438
ta(I376340
I376382
S'wd'
p439
ta(I376382
I376424
S'lf'
p440
ta(I376424
I376466
S'eyo'
p441
ta(I376466
I376508
S'eou'
p442
ta(I376508
I376549
S'fr'
p443
ta(I376549
I376589
S'ghb'
p444
ta(I376589
I376629
S'eea'
p445
ta(I376629
I376668
S'xpl'
p446
ta(I376668
I376707
S'sf'
p447
ta(I376707
I376746
S'rtm'
p448
ta(I376746
I376785
S'rtl'
p449
ta(I376785
I376823
S'oyi'
p450
ta(I376823
I376861
S'oya'
p451
ta(I376861
I376899
S'dj'
p452
ta(I376899
I376936
S'tn'
p453
ta(I376936
I376973
S'nsf'
p454
ta(I376973
I377010
S'nr'
p455
ta(I377010
I377047
S'eu'
p456
ta(I377047
I377083
S'ttr'
p457
ta(I377083
I377119
S'sph'
p458
ta(I377119
I377154
S'sch'
p459
ta(I377154
I377189
S'ph'
p460
ta(I377189
I377223
S'uou'
p461
ta(I377223
I377257
S'ghtl'
p462
ta(I377257
I377290
S'nm'
p463
ta(I377290
I377322
S'uai'
p464
ta(I377322
I377354
S'rpr'
p465
ta(I377354
I377386
S'mbr'
p466
ta(I377386
I377418
S'ks'
p467
ta(I377418
I377449
S'ssf'
p468
ta(I377449
I377480
S'rml'
p469
ta(I377480
I377511
S'ckl'
p470
ta(I377511
I377541
S'uie'
p471
ta(I377541
I377570
S'sb'
p472
ta(I377570
I377599
S'rpl'
p473
ta(I377599
I377628
S'dr'
p474
ta(I377628
I377656
S'nw'
p475
ta(I377656
I377684
S'ngd'
p476
ta(I377684
I377712
S'lg'
p477
ta(I377712
I377740
S'ddr'
p478
ta(I377740
I377767
S'wn'
p479
ta(I377767
I377794
S'sm'
p480
ta(I377794
I377821
S'nx'
p481
ta(I377821
I377848
S'ae'
p482
ta(I377848
I377874
S'rnm'
p483
ta(I377874
I377900
S'ey'
p484
ta(I377900
I377926
S'dn'
p485
ta(I377926
I377951
S'ckn'
p486
ta(I377951
I377975
S'uo'
p487
ta(I377975
I377999
S'ddl'
p488
ta(I377999
I378022
S'bv'
p489
ta(I378022
I378044
S'eye'
p490
ta(I378044
I378065
S'ps'
p491
ta(I378065
I378086
S'ndn'
p492
ta(I378086
I378107
S'lph'
p493
ta(I378107
I378128
S'ln'
p494
ta(I378128
I378149
S'ffl'
p495
ta(I378149
I378170
S'bd'
p496
ta(I378170
I378190
S'bstr'
p497
ta(I378190
I378209
S'tf'
p498
ta(I378209
I378228
S'rcl'
p499
ta(I378228
I378247
S'lp'
p500
ta(I378247
I378266
S'ldw'
p501
ta(I378266
I378283
S'xch'
p502
ta(I378283
I378300
S'dh'
p503
ta(I378300
I378316
S'sr'
p504
ta(I378316
I378332
S'rtwr'
p505
ta(I378332
I378348
S'rthl'
p506
ta(I378348
I378363
S'ssl'
p507
ta(I378363
I378378
S'sg'
p508
ta(I378378
I378393
S'rfl'
p509
ta(I378393
I378408
S'rdl'
p510
ta(I378408
I378423
S'nfr'
p511
ta(I378423
I378438
S'eei'
p512
ta(I378438
I378452
S'zzl'
p513
ta(I378452
I378466
S'thdr'
p514
ta(I378466
I378480
S'nsm'
p515
ta(I378480
I378494
S'nkl'
p516
ta(I378494
I378508
S'nds'
p517
ta(I378508
I378522
S'gm'
p518
ta(I378522
I378536
S'ctr'
p519
ta(I378536
I378549
S'rtn'
p520
ta(I378549
I378562
S'pm'
p521
ta(I378562
I378575
S'eya'
p522
ta(I378575
I378588
S'ctf'
p523
ta(I378588
I378600
S'uee'
p524
ta(I378600
I378612
S'thf'
p525
ta(I378612
I378624
S'spl'
p526
ta(I378624
I378636
S'rsh'
p527
ta(I378636
I378648
S'pn'
p528
ta(I378648
I378660
S'ntm'
p529
ta(I378660
I378672
S'nthr'
p530
ta(I378672
I378684
S'ngh'
p531
ta(I378684
I378696
S'mph'
p532
ta(I378696
I378708
S'lpl'
p533
ta(I378708
I378720
S'lln'
p534
ta(I378720
I378732
S'ggl'
p535
ta(I378732
I378744
S'eyi'
p536
ta(I378744
I378756
S'dgm'
p537
ta(I378756
I378767
S'xcr'
p538
ta(I378767
I378778
S'thm'
p539
ta(I378778
I378789
S'np'
p540
ta(I378789
I378800
S'chn'
p541
ta(I378800
I378811
S'bscr'
p542
ta(I378811
I378821
S'wf'
p543
ta(I378821
I378831
S'stm'
p544
ta(I378831
I378841
S'sn'
p545
ta(I378841
I378851
S'nsh'
p546
ta(I378851
I378861
S'nscr'
p547
ta(I378861
I378871
S'npl'
p548
ta(I378871
I378881
S'mps'
p549
ta(I378881
I378891
S'ffm'
p550
ta(I378891
I378901
S'btr'
p551
ta(I378901
I378911
S'bm'
p552
ta(I378911
I378921
S'ao'
p553
ta(I378921
I378930
S'wnl'
p554
ta(I378930
I378939
S'sd'
p555
ta(I378939
I378948
S'rtf'
p556
ta(I378948
I378957
S'rsp'
p557
ta(I378957
I378966
S'pw'
p558
ta(I378966
I378975
S'ldn'
p559
ta(I378975
I378984
S'ghtf'
p560
ta(I378984
I378992
S'thst'
p561
ta(I378992
I379000
S'ssn'
p562
ta(I379000
I379008
S'rldl'
p563
ta(I379008
I379016
S'npr'
p564
ta(I379016
I379024
S'nkn'
p565
ta(I379024
I379032
S'ndm'
p566
ta(I379032
I379040
S'kl'
p567
ta(I379040
I379048
S'gsh'
p568
ta(I379048
I379056
S'ftl'
p569
ta(I379056
I379064
S'fth'
p570
ta(I379064
I379072
S'bcd'
p571
ta(I379072
I379079
S'ye'
p572
ta(I379079
I379086
S'wsp'
p573
ta(I379086
I379093
S'sgr'
p574
ta(I379093
I379100
S'ngth'
p575
ta(I379100
I379107
S'mphl'
p576
ta(I379107
I379114
S'kn'
p577
ta(I379114
I379121
S'ghtn'
p578
ta(I379121
I379128
S'aya'
p579
ta(I379128
I379134
S'zz'
p580
ta(I379134
I379140
S'wnw'
p581
ta(I379140
I379146
S'rph'
p582
ta(I379146
I379152
S'rdw'
p583
ta(I379152
I379158
S'rbl'
p584
ta(I379158
I379164
S'ghn'
p585
ta(I379164
I379170
S'ggr'
p586
ta(I379170
I379176
S'ftw'
p587
ta(I379176
I379182
S'bbl'
p588
ta(I379182
I379187
S'vr'
p589
ta(I379187
I379192
S'uyi'
p590
ta(I379192
I379197
S'td'
p591
ta(I379197
I379202
S'ssp'
p592
ta(I379202
I379207
S'shn'
p593
ta(I379207
I379212
S'rwh'
p594
ta(I379212
I379217
S'rdn'
p595
ta(I379217
I379222
S'ndk'
p596
ta(I379222
I379227
S'ltr'
p597
ta(I379227
I379232
S'kf'
p598
ta(I379232
I379237
S'ctn'
p599
ta(I379237
I379242
S'chl'
p600
ta(I379242
I379247
S'btf'
p601
ta(I379247
I379252
S'bsc'
p602
ta(I379252
I379256
S'yo'
p603
ta(I379256
I379260
S'xq'
p604
ta(I379260
I379264
S'ws'
p605
ta(I379264
I379268
S'uy'
p606
ta(I379268
I379272
S'thr'
p607
ta(I379272
I379276
S'tchm'
p608
ta(I379276
I379280
S'stn'
p609
ta(I379280
I379284
S'sq'
p610
ta(I379284
I379288
S'spr'
p611
ta(I379288
I379292
S'rthq'
p612
ta(I379292
I379296
S'rdsh'
p613
ta(I379296
I379300
S'pk'
p614
ta(I379300
I379304
S'oui'
p615
ta(I379304
I379308
S'nz'
p616
ta(I379308
I379312
S'nwh'
p617
ta(I379312
I379316
S'nspl'
p618
ta(I379316
I379320
S'nsl'
p619
ta(I379320
I379324
S'ndf'
p620
ta(I379324
I379328
S'nctl'
p621
ta(I379328
I379332
S'lb'
p622
ta(I379332
I379336
S'dcl'
p623
ta(I379336
I379340
S'cs'
p624
ta(I379340
I379344
S'btl'
p625
ta(I379344
I379347
S'wt'
p626
ta(I379347
I379350
S'wsl'
p627
ta(I379350
I379353
S'wkw'
p628
ta(I379353
I379356
S'wg'
p629
ta(I379356
I379359
S'wb'
p630
ta(I379359
I379362
S'thh'
p631
ta(I379362
I379365
S'tg'
p632
ta(I379365
I379368
S'tchf'
p633
ta(I379368
I379371
S'ssm'
p634
ta(I379371
I379374
S'shl'
p635
ta(I379374
I379377
S'rtsh'
p636
ta(I379377
I379380
S'rsb'
p637
ta(I379380
I379383
S'rnw'
p638
ta(I379383
I379386
S'rmn'
p639
ta(I379386
I379389
S'rksh'
p640
ta(I379389
I379392
S'rkl'
p641
ta(I379392
I379395
S'rgr'
p642
ta(I379395
I379398
S'nth'
p643
ta(I379398
I379401
S'ngthw'
p644
ta(I379401
I379404
S'ndsh'
p645
ta(I379404
I379407
S'mpk'
p646
ta(I379407
I379410
S'ml'
p647
ta(I379410
I379413
S'llf'
p648
ta(I379413
I379416
S'ldh'
p649
ta(I379416
I379419
S'ffn'
p650
ta(I379419
I379422
S'ds'
p651
ta(I379422
I379425
S'dc'
p652
ta(I379425
I379428
S'cks'
p653
ta(I379428
I379431
S'ckm'
p654
ta(I379431
I379433
S'wnr'
p655
ta(I379433
I379435
S'uye'
p656
ta(I379435
I379437
S'tchw'
p657
ta(I379437
I379439
S'rpt'
p658
ta(I379439
I379441
S'rnst'
p659
ta(I379441
I379443
S'rnn'
p660
ta(I379443
I379445
S'pst'
p661
ta(I379445
I379447
S'phr'
p662
ta(I379447
I379449
S'ooe'
p663
ta(I379449
I379451
S'ntw'
p664
ta(I379451
I379453
S'nsk'
p665
ta(I379453
I379455
S'nsgr'
p666
ta(I379455
I379457
S'nkf'
p667
ta(I379457
I379459
S'ngm'
p668
ta(I379459
I379461
S'ngf'
p669
ta(I379461
I379463
S'nbr'
p670
ta(I379463
I379465
S'msp'
p671
ta(I379465
I379467
S'mptl'
p672
ta(I379467
I379469
S'ltp'
p673
ta(I379469
I379471
S'ltl'
p674
ta(I379471
I379473
S'lq'
p675
ta(I379473
I379475
S'lpn'
p676
ta(I379475
I379477
S'lmsh'
p677
ta(I379477
I379479
S'lml'
p678
ta(I379479
I379481
S'lgr'
p679
ta(I379481
I379483
S'ldl'
p680
ta(I379483
I379485
S'ldb'
p681
ta(I379485
I379487
S'lcl'
p682
ta(I379487
I379489
S'ftn'
p683
ta(I379489
I379491
S'ffspr'
p684
ta(I379491
I379493
S'dst'
p685
ta(I379493
I379495
S'dsl'
p686
ta(I379495
I379497
S'ckw'
p687
ta(I379497
I379499
S'cksm'
p688
ta(I379499
I379501
S'chm'
p689
ta(I379501
I379503
S'ccr'
p690
ta(I379503
I379505
S'ccl'
p691
ta(I379505
I379507
S'cch'
p692
ta(I379507
I379509
S'aie'
p693
ta(I379509
I379510
S'zv'
p694
ta(I379510
I379511
S'yei'
p695
ta(I379511
I379512
S'ya'
p696
ta(I379512
I379513
S'xf'
p697
ta(I379513
I379514
S'wst'
p698
ta(I379514
I379515
S'wsb'
p699
ta(I379515
I379516
S'wr'
p700
ta(I379516
I379517
S'wp'
p701
ta(I379517
I379518
S'wm'
p702
ta(I379518
I379519
S'wdn'
p703
ta(I379519
I379520
S'wc'
p704
ta(I379520
I379521
S'vl'
p705
ta(I379521
I379522
S'uu'
p706
ta(I379522
I379523
S'uoya'
p707
ta(I379523
I379524
S'uea'
p708
ta(I379524
I379525
S'tth'
p709
ta(I379525
I379526
S'tsw'
p710
ta(I379526
I379527
S'tsp'
p711
ta(I379527
I379528
S'tsk'
p712
ta(I379528
I379529
S'tsh'
p713
ta(I379529
I379530
S'tp'
p714
ta(I379530
I379531
S'ths'
p715
ta(I379531
I379532
S'thc'
p716
ta(I379532
I379533
S'tb'
p717
ta(I379533
I379534
S'sw'
p718
ta(I379534
I379535
S'stw'
p719
ta(I379535
I379536
S'sth'
p720
ta(I379536
I379537
S'stf'
p721
ta(I379537
I379538
S'stc'
p722
ta(I379538
I379539
S'sj'
p723
ta(I379539
I379540
S'shp'
p724
ta(I379540
I379541
S'shb'
p725
ta(I379541
I379542
S'rtr'
p726
ta(I379542
I379543
S'rthw'
p727
ta(I379543
I379544
S'rthpl'
p728
ta(I379544
I379545
S'rtg'
p729
ta(I379545
I379546
S'rshl'
p730
ta(I379546
I379547
S'rq'
p731
ta(I379547
I379548
S'rpn'
p732
ta(I379548
I379549
S'rnl'
p733
ta(I379549
I379550
S'rnf'
p734
ta(I379550
I379551
S'rmh'
p735
ta(I379551
I379552
S'rlh'
p736
ta(I379552
I379553
S'rks'
p737
ta(I379553
I379554
S'rdr'
p738
ta(I379554
I379555
S'rct'
p739
ta(I379555
I379556
S'rcr'
p740
ta(I379556
I379557
S'rchm'
p741
ta(I379557
I379558
S'pz'
p742
ta(I379558
I379559
S'ptr'
p743
ta(I379559
I379560
S'ptl'
p744
ta(I379560
I379561
S'prh'
p745
ta(I379561
I379562
S'pd'
p746
ta(I379562
I379563
S'pb'
p747
ta(I379563
I379564
S'oyou'
p748
ta(I379564
I379565
S'oie'
p749
ta(I379565
I379566
S'nthl'
p750
ta(I379566
I379567
S'nspr'
p751
ta(I379567
I379568
S'nph'
p752
ta(I379568
I379569
S'nksg'
p753
ta(I379569
I379570
S'ngt'
p754
ta(I379570
I379571
S'ngs'
p755
ta(I379571
I379572
S'ndwr'
p756
ta(I379572
I379573
S'ndw'
p757
ta(I379573
I379574
S'ndt'
p758
ta(I379574
I379575
S'ndd'
p759
ta(I379575
I379576
S'nchm'
p760
ta(I379576
I379577
S'nbl'
p761
ta(I379577
I379578
S'mstr'
p762
ta(I379578
I379579
S'msh'
p763
ta(I379579
I379580
S'msgr'
p764
ta(I379580
I379581
S'mptn'
p765
ta(I379581
I379582
S'lst'
p766
ta(I379582
I379583
S'lpt'
p767
ta(I379583
I379584
S'lpf'
p768
ta(I379584
I379585
S'lmn'
p769
ta(I379585
I379586
S'llm'
p770
ta(I379586
I379587
S'llb'
p771
ta(I379587
I379588
S'lfw'
p772
ta(I379588
I379589
S'lfth'
p773
ta(I379589
I379590
S'lfp'
p774
ta(I379590
I379591
S'ldsh'
p775
ta(I379591
I379592
S'kw'
p776
ta(I379592
I379593
S'ksp'
p777
ta(I379593
I379594
S'kk'
p778
ta(I379594
I379595
S'ieu'
p779
ta(I379595
I379596
S'ghtw'
p780
ta(I379596
I379597
S'ghtsh'
p781
ta(I379597
I379598
S'ghth'
p782
ta(I379598
I379599
S'ghr'
p783
ta(I379599
I379600
S'ghf'
p784
ta(I379600
I379601
S'fwh'
p785
ta(I379601
I379602
S'fst'
p786
ta(I379602
I379603
S'ffs'
p787
ta(I379603
I379604
S'ffr'
p788
ta(I379604
I379605
S'dw'
p789
ta(I379605
I379606
S'dt'
p790
ta(I379606
I379607
S'dsh'
p791
ta(I379607
I379608
S'db'
p792
ta(I379608
I379609
S'cn'
p793
ta(I379609
I379610
S'cm'
p794
ta(I379610
I379611
S'ckh'
p795
ta(I379611
I379612
S'chs'
p796
ta(I379612
I379613
S'chr'
p797
ta(I379613
I379614
S'cd'
p798
ta(I379614
I379615
S'bn'
p799
ta(I379615
I379616
S'bg'
p800
ta(I379616
I379617
S'bbr'
p801
tas.