(dp1
S'endings'
p2
(lp3
(I1
I637
S'i'
ta(I637
I1097
S'a'
ta(I1097
I1477
S'u'
ta(I1477
I1796
S'o'
ta(I1796
I2100
S'e'
ta(I2100
I2244
S'n'
ta(I2244
I2268
S'oi'
p4
ta(I2268
I2286
S'ou'
p5
ta(I2286
I2304
S'oe'
p6
ta(I2304
I2322
S'ae'
p7
ta(I2322
I2338
S'yo'
p8
ta(I2338
I2350
S'uyu'
p9
ta(I2350
I2360
S'ya'
p10
ta(I2360
I2368
S'ue'
p11
ta(I2368
I2376
S'iyo'
p12
ta(I2376
I2384
S'ei'
p13
ta(I2384
I2392
S'ao'
p14
ta(I2392
I2398
S'yue'
p15
ta(I2398
I2402
S'oyo'
p16
ta(I2402
I2406
S'ioi'
p17
ta(I2406
I2410
S'ii'
p18
ta(I2410
I2414
S'ie'
p19
ta(I2414
I2418
S'ayo'
p20
ta(I2418
I2422
S'aya'
p21
ta(I2422
I2426
S'ai'
p22
ta(I2426
I2428
S'yoi'
p23
ta(I2428
I2430
S'uyo'
p24
ta(I2430
I2432
S'uo'
p25
ta(I2432
I2434
S'oya'
p26
ta(I2434
I2436
S'oue'
p27
ta(I2436
I2438
S'iu'
p28
ta(I2438
I2440
S'io'
p29
ta(I2440
I2442
S'eyo'
p30
ta(I2442
I2444
S'eya'
p31
ta(I2444
I2446
S'ayu'
p32
ta(I2446
I2448
S'ayou'
p33
ta(I2448
I2450
S'ayoo'
p34
ta(I2450
I2452
S'ayoi'
p35
ta(I2452
I2454
S'aie'
p36
tasS'beginnings'
p37
(lp38
(I1
I409
S'k'
ta(I409
I641
S'm'
ta(I641
I865
S'n'
ta(I865
I1047
S's'
ta(I1047
I1221
S'h'
ta(I1221
I1389
S'a'
ta(I1389
I1533
S't'
ta(I1533
I1662
S'sh'
p39
ta(I1662
I1788
S'o'
ta(I1788
I1890
S'i'
ta(I1890
I1970
S'ts'
p40
ta(I1970
I2040
S'f'
ta(I2040
I2104
S'w'
ta(I2104
I2152
S'u'
ta(I2152
I2194
S'ya'
p41
ta(I2194
I2236
S'ch'
p42
ta(I2236
I2276
S'g'
ta(I2276
I2312
S'yu'
p43
ta(I2312
I2348
S'yo'
p44
ta(I2348
I2380
S'd'
ta(I2380
I2400
S'b'
ta(I2400
I2414
S'j'
ta(I2414
I2422
S'e'
ta(I2422
I2426
S'z'
ta(I2426
I2430
S'r'
ta(I2430
I2432
S'yae'
p45
ta(I2432
I2434
S'oeya'
p46
ta(I2434
I2436
S'iu'
p47
ta(I2436
I2438
S'ii'
p48
ta(I2438
I2440
S'ie'
p49
ta(I2440
I2442
S'eya'
p50
ta(I2442
I2444
S'ai'
p51
ta(I2444
I2446
S'ae'
p52
tasS'medials'
p53
(lp54
(I1
I1223
S'a'
ta(I1223
I1987
S'r'
ta(I1987
I2591
S'i'
ta(I2591
I3173
S'o'
ta(I3173
I3723
S'k'
ta(I3723
I4171
S'u'
ta(I4171
I4559
S'm'
ta(I4559
I4925
S'n'
ta(I4925
I5209
S'e'
ta(I5209
I5489
S't'
ta(I5489
I5717
S'sh'
p55
ta(I5717
I5915
S's'
ta(I5915
I6105
S'g'
ta(I6105
I6263
S'd'
ta(I6263
I6421
S'b'
ta(I6421
I6523
S'j'
ta(I6523
I6611
S'w'
ta(I6611
I6687
S'ts'
p56
ta(I6687
I6761
S'z'
ta(I6761
I6817
S'ch'
p57
ta(I6817
I6871
S'ai'
p58
ta(I6871
I6907
S'h'
ta(I6907
I6931
S'ae'
p59
ta(I6931
I6953
S'oi'
p60
ta(I6953
I6969
S'nn'
p61
ta(I6969
I6985
S'aya'
p62
ta(I6985
I6997
S'f'
ta(I6997
I7007
S'nch'
p63
ta(I7007
I7017
S'iyo'
p64
ta(I7017
I7025
S'uya'
p65
ta(I7025
I7033
S'ie'
p66
ta(I7033
I7041
S'ia'
p67
ta(I7041
I7047
S'yo'
p68
ta(I7047
I7053
S'nt'
p69
ta(I7053
I7059
S'nj'
p70
ta(I7059
I7065
S'ng'
p71
ta(I7065
I7071
S'iya'
p72
ta(I7071
I7075
S'yu'
p73
ta(I7075
I7079
S'oyo'
p74
ta(I7079
I7083
S'np'
p75
ta(I7083
I7087
S'iyu'
p76
ta(I7087
I7091
S'io'
p77
ta(I7091
I7095
S'eyu'
p78
ta(I7095
I7099
S'ayu'
p79
ta(I7099
I7101
S'tt'
p80
ta(I7101
I7103
S'ssh'
p81
ta(I7103
I7105
S'oyu'
p82
ta(I7105
I7107
S'oya'
p83
ta(I7107
I7109
S'ooe'
p84
ta(I7109
I7111
S'oe'
p85
ta(I7111
I7113
S'oa'
p86
ta(I7113
I7115
S'nsh'
p87
ta(I7115
I7117
S'nm'
p88
ta(I7117
I7119
S'mm'
p89
ta(I7119
I7121
S'kk'
p90
ta(I7121
I7123
S'iae'
p91
ta(I7123
I7125
S'eya'
p92
ta(I7125
I7127
S'ei'
p93
ta(I7127
I7129
S'ayoi'
p94
ta(I7129
I7131
S'ayo'
p95
tas.