(dp1
S'endings'
p2
(lp3
(I1
I592
S'ie'
p4
ta(I592
I1115
S't'
ta(I1115
I1581
S'e'
ta(I1581
I1945
S'n'
ta(I1945
I2285
S'r'
ta(I2285
I2467
S'l'
ta(I2467
I2643
S'k'
ta(I2643
I2777
S's'
ta(I2777
I2877
S'ng'
p5
ta(I2877
I2975
S'g'
ta(I2975
I3061
S'rs'
p6
ta(I3061
I3139
S'rd'
p7
ta(I3139
I3216
S'd'
ta(I3216
I3263
S'nd'
p8
ta(I3263
I3308
S'm'
ta(I3308
I3351
S'f'
ta(I3351
I3393
S'ns'
p9
ta(I3393
I3426
S'p'
ta(I3426
I3458
S'ld'
p10
ta(I3458
I3489
S'ou'
p11
ta(I3489
I3519
S'nc'
p12
ta(I3519
I3544
S'y'
ta(I3544
I3567
S'nt'
p13
ta(I3567
I3587
S'ye'
p14
ta(I3587
I3607
S'ee'
p15
ta(I3607
I3626
S'a'
ta(I3626
I3644
S'hnp'
p16
ta(I3644
I3660
S'ds'
p17
ta(I3660
I3674
S'rt'
p18
ta(I3674
I3687
S'eie'
p19
ta(I3687
I3699
S'lfs'
p20
ta(I3699
I3710
S'rk'
p21
ta(I3710
I3721
S'ngs'
p22
ta(I3721
I3731
S'ls'
p23
ta(I3731
I3741
S'ia'
p24
ta(I3741
I3751
S'gs'
p25
ta(I3751
I3757
S'vp'
p26
ta(I3757
I3763
S'oe'
p27
ta(I3763
I3769
S'lk'
p28
ta(I3769
I3775
S'ae'
p29
ta(I3775
I3780
S'rg'
p30
ta(I3780
I3785
S'ms'
p31
ta(I3785
I3790
S'lg'
p32
ta(I3790
I3795
S'i'
ta(I3795
I3800
S'ei'
p33
ta(I3800
I3805
S'aie'
p34
ta(I3805
I3809
S'u'
ta(I3809
I3813
S'ts'
p35
ta(I3813
I3817
S'nk'
p36
ta(I3817
I3821
S'lf'
p37
ta(I3821
I3824
S'uie'
p38
ta(I3824
I3827
S'o'
ta(I3827
I3830
S'lp'
p39
ta(I3830
I3833
S'ks'
p40
ta(I3833
I3836
S'b'
ta(I3836
I3838
S'ui'
p41
ta(I3838
I3840
S'ss'
p42
ta(I3840
I3842
S'rp'
p43
ta(I3842
I3844
S'mp'
p44
ta(I3844
I3846
S'dm'
p45
ta(I3846
I3847
S'vk'
p46
ta(I3847
I3848
S'st'
p47
ta(I3848
I3849
S'rns'
p48
ta(I3849
I3850
S'pwv'
p49
ta(I3850
I3851
S'ooi'
p50
ta(I3851
I3852
S'oei'
p51
ta(I3852
I3853
S'nn'
p52
ta(I3853
I3854
S'nds'
p53
ta(I3854
I3855
S'mnr'
p54
ta(I3855
I3856
S'll'
p55
ta(I3856
I3857
S'cdp'
p56
ta(I3857
I3858
S'c'
tasS'beginnings'
p57
(lp58
(I1
I798
S'd'
ta(I798
I1085
S'v'
ta(I1085
I1345
S'w'
ta(I1345
I1605
S'h'
ta(I1605
I1813
S'm'
ta(I1813
I2000
S'g'
ta(I2000
I2181
S'b'
ta(I2181
I2360
S'a'
ta(I2360
I2524
S'n'
ta(I2524
I2655
S's'
ta(I2655
I2769
S't'
ta(I2769
I2873
S'o'
ta(I2873
I2960
S'k'
ta(I2960
I3044
S'p'
ta(I3044
I3125
S'oo'
p59
ta(I3125
I3205
S'aa'
p60
ta(I3205
I3277
S'r'
ta(I3277
I3336
S'st'
p61
ta(I3336
I3387
S'l'
ta(I3387
I3436
S'i'
ta(I3436
I3482
S'gr'
p62
ta(I3482
I3527
S'e'
ta(I3527
I3569
S'ui'
p63
ta(I3569
I3596
S'ee'
p64
ta(I3596
I3616
S'pr'
p65
ta(I3616
I3635
S'j'
ta(I3635
I3650
S'pl'
p66
ta(I3650
I3664
S'tw'
p67
ta(I3664
I3678
S'sl'
p68
ta(I3678
I3692
S'dr'
p69
ta(I3692
I3705
S'sk'
p70
ta(I3705
I3717
S'sw'
p71
ta(I3717
I3729
S'kr'
p72
ta(I3729
I3740
S'f'
ta(I3740
I3749
S'vr'
p73
ta(I3749
I3758
S'sp'
p74
ta(I3758
I3767
S'bl'
p75
ta(I3767
I3775
S'str'
p76
ta(I3775
I3783
S'kl'
p77
ta(I3783
I3788
S'tr'
p78
ta(I3788
I3793
S'ie'
p79
ta(I3793
I3798
S'br'
p80
ta(I3798
I3801
S'u'
ta(I3801
I3804
S'fr'
p81
ta(I3804
I3807
S'ae'
p82
ta(I3807
I3809
S'spr'
p83
ta(I3809
I3811
S'gl'
p84
ta(I3811
I3813
S'ei'
p85
ta(I3813
I3815
S'c'
ta(I3815
I3816
S'y'
ta(I3816
I3817
S'vs'
p86
ta(I3817
I3818
S'vl'
p87
ta(I3818
I3819
S'sn'
p88
ta(I3819
I3820
S'skr'
p89
ta(I3820
I3821
S'rw'
p90
ta(I3821
I3822
S'oue'
p91
ta(I3822
I3823
S'ou'
p92
ta(I3823
I3824
S'oe'
p93
ta(I3824
I3825
S'eie'
p94
ta(I3825
I3826
S'ch'
p95
ta(I3826
I3827
S'au'
p96
tasS'medials'
p97
(lp98
(I1
I1432
S'e'
ta(I1432
I2394
S'a'
ta(I2394
I3043
S'i'
ta(I3043
I3428
S'o'
ta(I3428
I3764
S'aa'
p99
ta(I3764
I3978
S'ee'
p100
ta(I3978
I4171
S'u'
ta(I4171
I4362
S's'
ta(I4362
I4546
S'ie'
p101
ta(I4546
I4700
S'n'
ta(I4700
I4854
S'k'
ta(I4854
I5001
S'oe'
p102
ta(I5001
I5144
S'l'
ta(I5144
I5281
S'oo'
p103
ta(I5281
I5414
S't'
ta(I5414
I5541
S'd'
ta(I5541
I5665
S'nd'
p104
ta(I5665
I5783
S'r'
ta(I5783
I5886
S'g'
ta(I5886
I5982
S'rd'
p105
ta(I5982
I6076
S'll'
p106
ta(I6076
I6162
S'w'
ta(I6162
I6233
S'fr'
p107
ta(I6233
I6302
S'st'
p108
ta(I6302
I6367
S'ui'
p109
ta(I6367
I6432
S'ei'
p110
ta(I6432
I6494
S'y'
ta(I6494
I6548
S'v'
ta(I6548
I6596
S'rt'
p111
ta(I6596
I6644
S'm'
ta(I6644
I6686
S'eu'
p112
ta(I6686
I6727
S'ng'
p113
ta(I6727
I6760
S'gt'
p114
ta(I6760
I6791
S'rh'
p115
ta(I6791
I6821
S'str'
p116
ta(I6821
I6850
S'p'
ta(I6850
I6878
S'nt'
p117
ta(I6878
I6904
S'rg'
p118
ta(I6904
I6930
S'ns'
p119
ta(I6930
I6954
S'rs'
p120
ta(I6954
I6977
S'rk'
p121
ta(I6977
I6998
S'io'
p122
ta(I6998
I7017
S'rv'
p123
ta(I7017
I7035
S'rl'
p124
ta(I7035
I7052
S'uu'
p125
ta(I7052
I7069
S'sl'
p126
ta(I7069
I7086
S'rsk'
p127
ta(I7086
I7103
S'kk'
p128
ta(I7103
I7120
S'h'
ta(I7120
I7137
S'br'
p129
ta(I7137
I7153
S'ss'
p130
ta(I7153
I7169
S'mm'
p131
ta(I7169
I7185
S'ld'
p132
ta(I7185
I7200
S'sk'
p133
ta(I7200
I7215
S'rn'
p134
ta(I7215
I7230
S'pp'
p135
ta(I7230
I7245
S'nn'
p136
ta(I7245
I7259
S'rst'
p137
ta(I7259
I7273
S'dr'
p138
ta(I7273
I7286
S'tg'
p139
ta(I7286
I7299
S'mb'
p140
ta(I7299
I7311
S'f'
ta(I7311
I7323
S'b'
ta(I7323
I7334
S'pg'
p141
ta(I7334
I7345
S'ntv'
p142
ta(I7345
I7356
S'lj'
p143
ta(I7356
I7366
S'rw'
p144
ta(I7366
I7376
S'md'
p145
ta(I7376
I7386
S'lg'
p146
ta(I7386
I7396
S'kt'
p147
ta(I7396
I7405
S'tst'
p148
ta(I7405
I7414
S'tr'
p149
ta(I7414
I7423
S'nk'
p150
ta(I7423
I7432
S'ngb'
p151
ta(I7432
I7441
S'lt'
p152
ta(I7441
I7450
S'lksm'
p153
ta(I7450
I7458
S'rbl'
p154
ta(I7458
I7466
S'nv'
p155
ta(I7466
I7474
S'nl'
p156
ta(I7474
I7482
S'gh'
p157
ta(I7482
I7489
S'tsk'
p158
ta(I7489
I7496
S'sb'
p159
ta(I7496
I7503
S'rgr'
p160
ta(I7503
I7510
S'ou'
p161
ta(I7510
I7517
S'nst'
p162
ta(I7517
I7524
S'fh'
p163
ta(I7524
I7531
S'eie'
p164
ta(I7531
I7537
S'th'
p165
ta(I7537
I7543
S'sg'
p166
ta(I7543
I7549
S'sdr'
p167
ta(I7549
I7555
S'rr'
p168
ta(I7555
I7561
S'rb'
p169
ta(I7561
I7567
S'oei'
p170
ta(I7567
I7573
S'ngst'
p171
ta(I7573
I7579
S'nb'
p172
ta(I7579
I7585
S'ml'
p173
ta(I7585
I7591
S'kl'
p174
ta(I7591
I7597
S'iaa'
p175
ta(I7597
I7603
S'ia'
p176
ta(I7603
I7609
S'ea'
p177
ta(I7609
I7614
S'z'
ta(I7614
I7619
S'vr'
p178
ta(I7619
I7624
S'sv'
p179
ta(I7624
I7629
S'rm'
p180
ta(I7629
I7634
S'nw'
p181
ta(I7634
I7639
S'lh'
p182
ta(I7639
I7644
S'gr'
p183
ta(I7644
I7649
S'gl'
p184
ta(I7649
I7654
S'gdh'
p185
ta(I7654
I7658
S'tm'
p186
ta(I7658
I7662
S'tl'
p187
ta(I7662
I7666
S'pst'
p188
ta(I7666
I7670
S'ps'
p189
ta(I7670
I7674
S'pl'
p190
ta(I7674
I7678
S'pkr'
p191
ta(I7678
I7682
S'nsl'
p192
ta(I7682
I7686
S'nds'
p193
ta(I7686
I7690
S'mp'
p194
ta(I7690
I7694
S'lw'
p195
ta(I7694
I7698
S'lk'
p196
ta(I7698
I7702
S'ldt'
p197
ta(I7702
I7706
S'kw'
p198
ta(I7706
I7710
S'gg'
p199
ta(I7710
I7714
S'ft'
p200
ta(I7714
I7718
S'ff'
p201
ta(I7718
I7722
S'bl'
p202
ta(I7722
I7725
S'ts'
p203
ta(I7725
I7728
S'tn'
p204
ta(I7728
I7731
S'spr'
p205
ta(I7731
I7734
S'sd'
p206
ta(I7734
I7737
S'rskr'
p207
ta(I7737
I7740
S'rsg'
p208
ta(I7740
I7743
S'rnst'
p209
ta(I7743
I7746
S'rkw'
p210
ta(I7746
I7749
S'rkl'
p211
ta(I7749
I7752
S'ptr'
p212
ta(I7752
I7755
S'ntn'
p213
ta(I7755
I7758
S'nth'
p214
ta(I7758
I7761
S'nkl'
p215
ta(I7761
I7764
S'nh'
p216
ta(I7764
I7767
S'ngr'
p217
ta(I7767
I7770
S'ngm'
p218
ta(I7770
I7773
S'ndw'
p219
ta(I7773
I7776
S'ndp'
p220
ta(I7776
I7779
S'mpt'
p221
ta(I7779
I7782
S'ltr'
p222
ta(I7782
I7785
S'lm'
p223
ta(I7785
I7788
S'lgr'
p224
ta(I7788
I7791
S'lfd'
p225
ta(I7791
I7794
S'ks'
p226
ta(I7794
I7797
S'fs'
p227
ta(I7797
I7800
S'fg'
p228
ta(I7800
I7803
S'dd'
p229
ta(I7803
I7806
S'c'
ta(I7806
I7808
S'tpr'
p230
ta(I7808
I7810
S'tj'
p231
ta(I7810
I7812
S'tb'
p232
ta(I7812
I7814
S'rsp'
p233
ta(I7814
I7816
S'rkst'
p234
ta(I7816
I7818
S'pt'
p235
ta(I7818
I7820
S'ntst'
p236
ta(I7820
I7822
S'ntl'
p237
ta(I7822
I7824
S'nm'
p238
ta(I7824
I7826
S'ndh'
p239
ta(I7826
I7828
S'mst'
p240
ta(I7828
I7830
S'lst'
p241
ta(I7830
I7832
S'ln'
p242
ta(I7832
I7834
S'ktr'
p243
ta(I7834
I7836
S'kr'
p244
ta(I7836
I7838
S'kh'
p245
ta(I7838
I7840
S'gst'
p246
ta(I7840
I7842
S'gsh'
p247
ta(I7842
I7844
S'gs'
p248
ta(I7844
I7846
S'gd'
p249
ta(I7846
I7848
S'fsk'
p250
ta(I7848
I7850
S'eo'
p251
ta(I7850
I7852
S'dw'
p252
ta(I7852
I7854
S'ae'
p253
ta(I7854
I7855
S'ya'
p254
ta(I7855
I7856
S'vl'
p255
ta(I7856
I7857
S'uy'
p256
ta(I7857
I7858
S'uee'
p257
ta(I7858
I7859
S'tt'
p258
ta(I7859
I7860
S'tsh'
p259
ta(I7860
I7861
S'tsf'
p260
ta(I7861
I7862
S'tk'
p261
ta(I7862
I7863
S'td'
p262
ta(I7863
I7864
S'sw'
p263
ta(I7864
I7865
S'sr'
p264
ta(I7865
I7866
S'sp'
p265
ta(I7866
I7867
S'sm'
p266
ta(I7867
I7868
S'skr'
p267
ta(I7868
I7869
S'sj'
p268
ta(I7869
I7870
S'rtr'
p269
ta(I7870
I7871
S'rtg'
p270
ta(I7871
I7872
S'rspr'
p271
ta(I7872
I7873
S'rsl'
p272
ta(I7873
I7874
S'rp'
p273
ta(I7874
I7875
S'rgdh'
p274
ta(I7875
I7876
S'rfl'
p275
ta(I7876
I7877
S'rdst'
p276
ta(I7877
I7878
S'rbr'
p277
ta(I7878
I7879
S'pn'
p278
ta(I7879
I7880
S'pkn'
p279
ta(I7880
I7881
S'oui'
p280
ta(I7881
I7882
S'oue'
p281
ta(I7882
I7883
S'ooi'
p282
ta(I7883
I7884
S'nvl'
p283
ta(I7884
I7885
S'ntw'
p284
ta(I7885
I7886
S'ntsl'
p285
ta(I7886
I7887
S'ntr'
p286
ta(I7887
I7888
S'ntj'
p287
ta(I7888
I7889
S'ntb'
p288
ta(I7889
I7890
S'nsv'
p289
ta(I7890
I7891
S'nsspr'
p290
ta(I7891
I7892
S'nsk'
p291
ta(I7892
I7893
S'nsg'
p292
ta(I7893
I7894
S'nr'
p293
ta(I7894
I7895
S'nkr'
p294
ta(I7895
I7896
S'nkm'
p295
ta(I7896
I7897
S'nj'
p296
ta(I7897
I7898
S'ngsv'
p297
ta(I7898
I7899
S'ngsk'
p298
ta(I7899
I7900
S'ngsb'
p299
ta(I7900
I7901
S'ngs'
p300
ta(I7901
I7902
S'ndt'
p301
ta(I7902
I7903
S'ndsl'
p302
ta(I7903
I7904
S'ndsk'
p303
ta(I7904
I7905
S'ndr'
p304
ta(I7905
I7906
S'ndl'
p305
ta(I7906
I7907
S'ndk'
p306
ta(I7907
I7908
S'ndj'
p307
ta(I7908
I7909
S'ndg'
p308
ta(I7909
I7910
S'mw'
p309
ta(I7910
I7911
S'mv'
p310
ta(I7911
I7912
S'mskr'
p311
ta(I7912
I7913
S'ms'
p312
ta(I7913
I7914
S'mpp'
p313
ta(I7914
I7915
S'mh'
p314
ta(I7915
I7916
S'mg'
p315
ta(I7916
I7917
S'ls'
p316
ta(I7917
I7918
S'lgtr'
p317
ta(I7918
I7919
S'lgl'
p318
ta(I7919
I7920
S'lfb'
p319
ta(I7920
I7921
S'lbl'
p320
ta(I7921
I7922
S'lb'
p321
ta(I7922
I7923
S'km'
p322
ta(I7923
I7924
S'kj'
p323
ta(I7924
I7925
S'kb'
p324
ta(I7925
I7926
S'j'
ta(I7926
I7927
S'iee'
p325
ta(I7927
I7928
S'gv'
p326
ta(I7928
I7929
S'gth'
p327
ta(I7929
I7930
S'gsm'
p328
ta(I7930
I7931
S'gn'
p329
ta(I7931
I7932
S'ftr'
p330
ta(I7932
I7933
S'fstr'
p331
ta(I7933
I7934
S'fl'
p332
ta(I7934
I7935
S'fd'
p333
ta(I7935
I7936
S'fbr'
p334
ta(I7936
I7937
S'ey'
p335
ta(I7937
I7938
S'eou'
p336
ta(I7938
I7939
S'eoo'
p337
ta(I7939
I7940
S'eaa'
p338
ta(I7940
I7941
S'dv'
p339
ta(I7941
I7942
S'dsv'
p340
ta(I7942
I7943
S'dsk'
p341
ta(I7943
I7944
S'dsd'
p342
ta(I7944
I7945
S'ds'
p343
ta(I7945
I7946
S'dpl'
p344
ta(I7946
I7947
S'dm'
p345
ta(I7947
I7948
S'dk'
p346
ta(I7948
I7949
S'db'
p347
ta(I7949
I7950
S'ct'
p348
ta(I7950
I7951
S'cr'
p349
ta(I7951
I7952
S'bs'
p350
ta(I7952
I7953
S'bb'
p351
ta(I7953
I7954
S'ao'
p352
tas.