(dp1
S'endings'
p2
(lp3
(I1
I442
S'h'
ta(I442
I691
S'm'
ta(I691
I860
S'o'
ta(I860
I1011
S'a'
ta(I1011
I1120
S'aa'
p4
ta(I1120
I1186
S'e'
ta(I1186
I1242
S'i'
ta(I1242
I1287
S'ii'
p5
ta(I1287
I1317
S'ya'
p6
ta(I1317
I1343
S't'
ta(I1343
I1367
S'n'
ta(I1367
I1390
S'aaya'
p7
ta(I1390
I1410
S'yo'
p8
ta(I1410
I1429
S'r'
ta(I1429
I1440
S'u'
ta(I1440
I1448
S'd'
ta(I1448
I1456
S'aye'
p9
ta(I1456
I1463
S'ng'
p10
ta(I1463
I1470
S'ayo'
p11
ta(I1470
I1475
S's'
ta(I1475
I1479
S'yai'
p12
ta(I1479
I1483
S'yaa'
p13
ta(I1483
I1487
S'nd'
p14
ta(I1487
I1491
S'ld'
p15
ta(I1491
I1495
S'ai'
p16
ta(I1495
I1498
S'ye'
p17
ta(I1498
I1501
S'th'
p18
ta(I1501
I1504
S'ayii'
p19
ta(I1504
I1507
S'aya'
p20
ta(I1507
I1510
S'aayo'
p21
ta(I1510
I1513
S'aayai'
p22
ta(I1513
I1515
S'yayaa'
p23
ta(I1515
I1517
S'yau'
p24
ta(I1517
I1519
S'y'
ta(I1519
I1521
S'w'
ta(I1521
I1523
S'st'
p25
ta(I1523
I1525
S'p'
ta(I1525
I1527
S'ns'
p26
ta(I1527
I1529
S'k'
ta(I1529
I1531
S'iyo'
p27
ta(I1531
I1533
S'eyo'
p28
ta(I1533
I1535
S'au'
p29
ta(I1535
I1536
S'yii'
p30
ta(I1536
I1537
S'yaya'
p31
ta(I1537
I1538
S'yaayo'
p32
ta(I1538
I1539
S'yaayii'
p33
ta(I1539
I1540
S'yaaya'
p34
ta(I1540
I1541
S'wn'
p35
ta(I1541
I1542
S'rth'
p36
ta(I1542
I1543
S'rs'
p37
ta(I1543
I1544
S'rm'
p38
ta(I1544
I1545
S'rds'
p39
ta(I1545
I1546
S'rd'
p40
ta(I1546
I1547
S'ps'
p41
ta(I1547
I1548
S'nks'
p42
ta(I1548
I1549
S'ls'
p43
ta(I1549
I1550
S'lms'
p44
ta(I1550
I1551
S'lm'
p45
ta(I1551
I1552
S'll'
p46
ta(I1552
I1553
S'iyaa'
p47
ta(I1553
I1554
S'iiya'
p48
ta(I1554
I1555
S'ght'
p49
ta(I1555
I1556
S'gh'
p50
ta(I1556
I1557
S'g'
ta(I1557
I1558
S'ee'
p51
ta(I1558
I1559
S'ck'
p52
ta(I1559
I1560
S'ch'
p53
ta(I1560
I1561
S'ayaa'
p54
tasS'beginnings'
p55
(lp56
(I1
I195
S's'
ta(I195
I361
S'v'
ta(I361
I469
S'p'
ta(I469
I571
S'm'
ta(I571
I642
S'a'
ta(I642
I711
S'sh'
p57
ta(I711
I777
S'pr'
p58
ta(I777
I842
S'n'
ta(I842
I907
S'k'
ta(I907
I972
S'bh'
p59
ta(I972
I1034
S'd'
ta(I1034
I1074
S'shr'
p60
ta(I1074
I1109
S'g'
ta(I1109
I1142
S'ya'
p61
ta(I1142
I1175
S'j'
ta(I1175
I1205
S't'
ta(I1205
I1234
S'dh'
p62
ta(I1234
I1262
S'r'
ta(I1262
I1286
S'ch'
p63
ta(I1286
I1307
S'sv'
p64
ta(I1307
I1325
S'st'
p65
ta(I1325
I1343
S'l'
ta(I1343
I1360
S'br'
p66
ta(I1360
I1377
S'aa'
p67
ta(I1377
I1393
S'h'
ta(I1393
I1405
S'b'
ta(I1405
I1416
S'i'
ta(I1416
I1426
S'u'
ta(I1426
I1435
S'sth'
p68
ta(I1435
I1443
S'tr'
p69
ta(I1443
I1451
S'ksh'
p70
ta(I1451
I1459
S'f'
ta(I1459
I1466
S'yu'
p71
ta(I1466
I1472
S'yo'
p72
ta(I1472
I1478
S'o'
ta(I1478
I1484
S'e'
ta(I1484
I1489
S'w'
ta(I1489
I1493
S'yaa'
p73
ta(I1493
I1497
S'sr'
p74
ta(I1497
I1501
S'kr'
p75
ta(I1501
I1504
S'wh'
p76
ta(I1504
I1507
S'th'
p77
ta(I1507
I1510
S'shch'
p78
ta(I1510
I1513
S'ii'
p79
ta(I1513
I1516
S'dv'
p80
ta(I1516
I1519
S'chh'
p81
ta(I1519
I1521
S'uu'
p82
ta(I1521
I1523
S'tv'
p83
ta(I1523
I1525
S'thr'
p84
ta(I1525
I1527
S'str'
p85
ta(I1527
I1529
S'sp'
p86
ta(I1529
I1531
S'sk'
p87
ta(I1531
I1533
S'shl'
p88
ta(I1533
I1535
S'kv'
p89
ta(I1535
I1537
S'kh'
p90
ta(I1537
I1539
S'gr'
p91
ta(I1539
I1541
S'ea'
p92
ta(I1541
I1542
S'spr'
p93
ta(I1542
I1543
S'sn'
p94
ta(I1543
I1544
S'sm'
p95
ta(I1544
I1545
S'shv'
p96
ta(I1545
I1546
S'shsh'
p97
ta(I1546
I1547
S'shhv'
p98
ta(I1547
I1548
S'shhtr'
p99
ta(I1548
I1549
S'shh'
p100
ta(I1549
I1550
S'ph'
p101
ta(I1550
I1551
S'iya'
p102
ta(I1551
I1552
S'ghn'
p103
ta(I1552
I1553
S'gh'
p104
ta(I1553
I1554
S'fr'
p105
ta(I1554
I1555
S'dr'
p106
ta(I1555
I1556
S'dhr'
p107
ta(I1556
I1557
S'c'
ta(I1557
I1558
S'bl'
p108
ta(I1558
I1559
S'bhr'
p109
ta(I1559
I1560
S'au'
p110
ta(I1560
I1561
S'aayu'
p111
tasS'medials'
p112
(lp113
(I1
I2204
S'a'
ta(I2204
I2835
S'aa'
p114
ta(I2835
I3324
S'i'
ta(I3324
I3755
S'n'
ta(I3755
I4112
S'r'
ta(I4112
I4446
S'u'
ta(I4446
I4747
S't'
ta(I4747
I5005
S'm'
ta(I5005
I5261
S'v'
ta(I5261
I5464
S'e'
ta(I5464
I5610
S'h'
ta(I5610
I5754
S'o'
ta(I5754
I5898
S'd'
ta(I5898
I6023
S'ii'
p115
ta(I6023
I6137
S's'
ta(I6137
I6239
S'g'
ta(I6239
I6336
S'k'
ta(I6336
I6427
S'p'
ta(I6427
I6518
S'dh'
p116
ta(I6518
I6605
S'ya'
p117
ta(I6605
I6690
S'bh'
p118
ta(I6690
I6767
S'sh'
p119
ta(I6767
I6841
S'uu'
p120
ta(I6841
I6908
S'j'
ta(I6908
I6970
S'l'
ta(I6970
I7031
S'rv'
p121
ta(I7031
I7086
S'ksh'
p122
ta(I7086
I7132
S'yaa'
p123
ta(I7132
I7177
S'nd'
p124
ta(I7177
I7222
S'ch'
p125
ta(I7222
I7263
S'nt'
p126
ta(I7263
I7301
S'shh'
p127
ta(I7301
I7337
S'rm'
p128
ta(I7337
I7373
S'ai'
p129
ta(I7373
I7408
S'shv'
p130
ta(I7408
I7442
S'rt'
p131
ta(I7442
I7473
S'tr'
p132
ta(I7473
I7503
S'tm'
p133
ta(I7503
I7532
S'kt'
p134
ta(I7532
I7559
S'st'
p135
ta(I7559
I7584
S'nn'
p136
ta(I7584
I7608
S'tt'
p137
ta(I7608
I7632
S'aya'
p138
ta(I7632
I7655
S'shhn'
p139
ta(I7655
I7677
S'th'
p140
ta(I7677
I7699
S'aaya'
p141
ta(I7699
I7719
S'kr'
p142
ta(I7719
I7737
S'pr'
p143
ta(I7737
I7755
S'hm'
p144
ta(I7755
I7772
S'sr'
p145
ta(I7772
I7789
S'shch'
p146
ta(I7789
I7806
S'rn'
p147
ta(I7806
I7823
S'kh'
p148
ta(I7823
I7839
S'shhth'
p149
ta(I7839
I7855
S'shht'
p150
ta(I7855
I7871
S'rth'
p151
ta(I7871
I7887
S'rd'
p152
ta(I7887
I7903
S'ddh'
p153
ta(I7903
I7917
S'rbh'
p154
ta(I7917
I7930
S'yu'
p155
ta(I7930
I7943
S'ts'
p156
ta(I7943
I7956
S'shr'
p157
ta(I7956
I7968
S'ndr'
p158
ta(I7968
I7979
S'rj'
p159
ta(I7979
I7990
S'dbh'
p160
ta(I7990
I8000
S'rg'
p161
ta(I8000
I8010
S'rdh'
p162
ta(I8010
I8020
S'pn'
p163
ta(I8020
I8030
S'au'
p164
ta(I8030
I8039
S'sm'
p165
ta(I8039
I8048
S'rshh'
p166
ta(I8048
I8057
S'pt'
p167
ta(I8057
I8066
S'nv'
p168
ta(I8066
I8075
S'mbh'
p169
ta(I8075
I8084
S'gr'
p170
ta(I8084
I8092
S'iya'
p171
ta(I8092
I8100
S'gh'
p172
ta(I8100
I8108
S'b'
ta(I8108
I8115
S'yo'
p173
ta(I8115
I8122
S'ye'
p174
ta(I8122
I8129
S'yaya'
p175
ta(I8129
I8136
S'sth'
p176
ta(I8136
I8143
S'rch'
p177
ta(I8143
I8150
S'dm'
p178
ta(I8150
I8156
S'ttv'
p179
ta(I8156
I8162
S'ss'
p180
ta(I8162
I8168
S'ou'
p181
ta(I8168
I8174
S'ndh'
p182
ta(I8174
I8180
S'msh'
p183
ta(I8180
I8186
S'mh'
p184
ta(I8186
I8192
S'chchh'
p185
ta(I8192
I8198
S'ayo'
p186
ta(I8198
I8204
S'aayu'
p187
ta(I8204
I8209
S'uyaa'
p188
ta(I8209
I8214
S'tv'
p189
ta(I8214
I8219
S'tpr'
p190
ta(I8219
I8224
S'tp'
p191
ta(I8224
I8229
S'str'
p192
ta(I8229
I8234
S'rh'
p193
ta(I8234
I8239
S'ntr'
p194
ta(I8239
I8244
S'lp'
p195
ta(I8244
I8249
S'kshm'
p196
ta(I8249
I8254
S'ee'
p197
ta(I8254
I8259
S'bhr'
p198
ta(I8259
I8264
S'ayaa'
p199
ta(I8264
I8268
S'tk'
p200
ta(I8268
I8272
S'sv'
p201
ta(I8272
I8276
S'sp'
p202
ta(I8276
I8280
S'rp'
p203
ta(I8280
I8284
S'oo'
p204
ta(I8284
I8288
S'nm'
p205
ta(I8288
I8292
S'iyu'
p206
ta(I8292
I8296
S'ghn'
p207
ta(I8296
I8300
S'dr'
p208
ta(I8300
I8304
S'c'
ta(I8304
I8308
S'ayi'
p209
ta(I8308
I8311
S'yuu'
p210
ta(I8311
I8314
S'shsh'
p211
ta(I8314
I8317
S'shhv'
p212
ta(I8317
I8320
S'rtt'
p213
ta(I8320
I8323
S'rsh'
p214
ta(I8323
I8326
S'rk'
p215
ta(I8326
I8329
S'mv'
p216
ta(I8329
I8332
S'mp'
p217
ta(I8332
I8335
S'mn'
p218
ta(I8335
I8338
S'jv'
p219
ta(I8338
I8341
S'jnj'
p220
ta(I8341
I8344
S'gv'
p221
ta(I8344
I8347
S'gn'
p222
ta(I8347
I8350
S'eya'
p223
ta(I8350
I8353
S'ea'
p224
ta(I8353
I8356
S'dv'
p225
ta(I8356
I8359
S'bd'
p226
ta(I8359
I8362
S'aaye'
p227
ta(I8362
I8364
S'yau'
p228
ta(I8364
I8366
S'yaayo'
p229
ta(I8366
I8368
S'w'
ta(I8368
I8370
S'tth'
p230
ta(I8370
I8372
S'tn'
p231
ta(I8372
I8374
S'tksh'
p232
ta(I8374
I8376
S'stv'
p233
ta(I8376
I8378
S'shhm'
p234
ta(I8378
I8380
S'shhk'
p235
ta(I8380
I8382
S'rl'
p236
ta(I8382
I8384
S'rf'
p237
ta(I8384
I8386
S'rdhv'
p238
ta(I8386
I8388
S'rb'
p239
ta(I8388
I8390
S'nh'
p240
ta(I8390
I8392
S'ms'
p241
ta(I8392
I8394
S'll'
p242
ta(I8394
I8396
S'ld'
p243
ta(I8396
I8398
S'ks'
p244
ta(I8398
I8400
S'iyaa'
p245
ta(I8400
I8402
S'iiyai'
p246
ta(I8402
I8404
S'iiyaa'
p247
ta(I8404
I8406
S'iiya'
p248
ta(I8406
I8408
S'hsv'
p249
ta(I8408
I8410
S'hkh'
p250
ta(I8410
I8412
S'ff'
p251
ta(I8412
I8414
S'eyaa'
p252
ta(I8414
I8416
S'dg'
p253
ta(I8416
I8418
S'bdh'
p254
ta(I8418
I8420
S'aye'
p255
ta(I8420
I8422
S'aayaa'
p256
ta(I8422
I8423
S'yi'
p257
ta(I8423
I8424
S'yeya'
p258
ta(I8424
I8425
S'yai'
p259
ta(I8425
I8426
S'yaaye'
p260
ta(I8426
I8427
S'yaaya'
p261
ta(I8427
I8428
S'xt'
p262
ta(I8428
I8429
S'vr'
p263
ta(I8429
I8430
S'vh'
p264
ta(I8430
I8431
S'uyu'
p265
ta(I8431
I8432
S'tw'
p266
ta(I8432
I8433
S'ttl'
p267
ta(I8433
I8434
S'ssth'
p268
ta(I8434
I8435
S'sk'
p269
ta(I8435
I8436
S'shm'
p270
ta(I8436
I8437
S'shhp'
p271
ta(I8437
I8438
S'shchh'
p272
ta(I8438
I8439
S'sc'
p273
ta(I8439
I8440
S'rtr'
p274
ta(I8440
I8441
S'rs'
p275
ta(I8441
I8442
S'rr'
p276
ta(I8442
I8443
S'rgh'
p277
ta(I8443
I8444
S'rdhr'
p278
ta(I8444
I8445
S'rddh'
p279
ta(I8445
I8446
S'rbrhm'
p280
ta(I8446
I8447
S'ppr'
p281
ta(I8447
I8448
S'oi'
p282
ta(I8448
I8449
S'nth'
p283
ta(I8449
I8450
S'nl'
p284
ta(I8450
I8451
S'nkl'
p285
ta(I8451
I8452
S'nc'
p286
ta(I8452
I8453
S'nb'
p287
ta(I8453
I8454
S'msth'
p288
ta(I8454
I8455
S'mr'
p289
ta(I8455
I8456
S'mpl'
p290
ta(I8456
I8457
S'mm'
p291
ta(I8457
I8458
S'md'
p292
ta(I8458
I8459
S'mb'
p293
ta(I8459
I8460
S'lm'
p294
ta(I8460
I8461
S'ktr'
p295
ta(I8461
I8462
S'ksv'
p296
ta(I8462
I8463
S'km'
p297
ta(I8463
I8464
S'kl'
p298
ta(I8464
I8465
S'jnch'
p299
ta(I8465
I8466
S'jj'
p300
ta(I8466
I8467
S'iyo'
p301
ta(I8467
I8468
S'iyai'
p302
ta(I8468
I8469
S'io'
p303
ta(I8469
I8470
S'iiyuu'
p304
ta(I8470
I8471
S'ie'
p305
ta(I8471
I8472
S'ia'
p306
ta(I8472
I8473
S'hsth'
p307
ta(I8473
I8474
S'hsh'
p308
ta(I8474
I8475
S'hp'
p309
ta(I8475
I8476
S'gm'
p310
ta(I8476
I8477
S'gbh'
p311
ta(I8477
I8478
S'gb'
p312
ta(I8478
I8479
S'ft'
p313
ta(I8479
I8480
S'dhv'
p314
ta(I8480
I8481
S'db'
p315
ta(I8481
I8482
S'ct'
p316
ta(I8482
I8483
S'br'
p317
ta(I8483
I8484
S'aayo'
p318
ta(I8484
I8485
S'aayaayaa'
p319
tas.