(dp1
S'endings'
p2
(lp3
(I1
I732
S's'
ta(I732
I1385
S'e'
ta(I1385
I1704
S'r'
ta(I1704
I1943
S'nt'
p4
ta(I1943
I2133
S'n'
ta(I2133
I2279
S'ns'
p5
ta(I2279
I2413
S't'
ta(I2413
I2512
S'ue'
p6
ta(I2512
I2596
S'x'
ta(I2596
I2665
S'rs'
p7
ta(I2665
I2730
S'ui'
p8
ta(I2730
I2791
S'i'
ta(I2791
I2848
S'l'
ta(I2848
I2885
S'st'
p9
ta(I2885
I2919
S'c'
ta(I2919
I2949
S'a'
ta(I2949
I2970
S'nts'
p10
ta(I2970
I2988
S'ts'
p11
ta(I2988
I3006
S'ie'
p12
ta(I3006
I3021
S'rt'
p13
ta(I3021
I3036
S'nd'
p14
ta(I3036
I3051
S'f'
ta(I3051
I3063
S'y'
ta(I3063
I3075
S'oi'
p15
ta(I3075
I3087
S'm'
ta(I3087
I3098
S'u'
ta(I3098
I3109
S'ieu'
p16
ta(I3109
I3119
S'ls'
p17
ta(I3119
I3128
S'rd'
p18
ta(I3128
I3137
S'k'
ta(I3137
I3145
S'rts'
p19
ta(I3145
I3153
S'mps'
p20
ta(I3153
I3160
S'p'
ta(I3160
I3167
S'd'
ta(I3167
I3173
S'z'
ta(I3173
I3179
S'nc'
p21
ta(I3179
I3185
S'eu'
p22
ta(I3185
I3191
S'eau'
p23
ta(I3191
I3196
S'uoi'
p24
ta(I3196
I3201
S'g'
ta(I3201
I3206
S'fs'
p25
ta(I3206
I3210
S'sh'
p26
ta(I3210
I3214
S'oie'
p27
ta(I3214
I3218
S'o'
ta(I3218
I3221
S'rds'
p28
ta(I3221
I3224
S'rdc'
p29
ta(I3224
I3227
S'rcd'
p30
ta(I3227
I3230
S'ng'
p31
ta(I3230
I3232
S'wk'
p32
ta(I3232
I3234
S'w'
ta(I3234
I3236
S'ueue'
p33
ta(I3236
I3238
S'rc'
p34
ta(I3238
I3240
S'oue'
p35
ta(I3240
I3242
S'ou'
p36
ta(I3242
I3244
S'nq'
p37
ta(I3244
I3246
S'io'
p38
ta(I3246
I3248
S'hn'
p39
ta(I3248
I3250
S'fp'
p40
ta(I3250
I3252
S'cs'
p41
ta(I3252
I3254
S'ck'
p42
ta(I3254
I3255
S'v'
ta(I3255
I3256
S'th'
p43
ta(I3256
I3257
S'rk'
p44
ta(I3257
I3258
S'pt'
p45
ta(I3258
I3259
S'ps'
p46
ta(I3259
I3260
S'oyau'
p47
ta(I3260
I3261
S'ngc'
p48
ta(I3261
I3262
S'nds'
p49
ta(I3262
I3263
S'ncts'
p50
ta(I3263
I3264
S'ms'
p51
ta(I3264
I3265
S'mp'
p52
ta(I3265
I3266
S'ieue'
p53
ta(I3266
I3267
S'ei'
p54
ta(I3267
I3268
S'eay'
p55
ta(I3268
I3269
S'ds'
p56
ta(I3269
I3270
S'ct'
p57
ta(I3270
I3271
S'cht'
p58
ta(I3271
I3272
S'ch'
p59
ta(I3272
I3273
S'ai'
p60
tasS'beginnings'
p61
(lp62
(I1
I334
S'd'
ta(I334
I666
S'p'
ta(I666
I977
S's'
ta(I977
I1214
S'l'
ta(I1214
I1450
S'c'
ta(I1450
I1635
S'm'
ta(I1635
I1806
S'a'
ta(I1806
I1953
S'q'
ta(I1953
I2064
S'r'
ta(I2064
I2165
S'e'
ta(I2165
I2259
S'f'
ta(I2259
I2350
S'n'
ta(I2350
I2433
S'u'
ta(I2433
I2508
S't'
ta(I2508
I2581
S'pr'
p63
ta(I2581
I2648
S'v'
ta(I2648
I2711
S'pl'
p64
ta(I2711
I2772
S'i'
ta(I2772
I2826
S'j'
ta(I2826
I2879
S'b'
ta(I2879
I2929
S'au'
p65
ta(I2929
I2978
S'o'
ta(I2978
I3020
S'ch'
p66
ta(I3020
I3059
S'tr'
p67
ta(I3059
I3092
S'g'
ta(I3092
I3117
S'gr'
p68
ta(I3117
I3137
S'h'
ta(I3137
I3149
S'cr'
p69
ta(I3149
I3160
S'sp'
p70
ta(I3160
I3170
S'br'
p71
ta(I3170
I3180
S'bl'
p72
ta(I3180
I3188
S'fr'
p73
ta(I3188
I3195
S'ai'
p74
ta(I3195
I3201
S'ou'
p75
ta(I3201
I3207
S'eu'
p76
ta(I3207
I3213
S'dr'
p77
ta(I3213
I3218
S'fs'
p78
ta(I3218
I3222
S'rw'
p79
ta(I3222
I3226
S'k'
ta(I3226
I3229
S'z'
ta(I3229
I3232
S'yeu'
p80
ta(I3232
I3235
S'sc'
p81
ta(I3235
I3238
S'ph'
p82
ta(I3238
I3240
S'th'
p83
ta(I3240
I3242
S'st'
p84
ta(I3242
I3244
S'kh'
p85
ta(I3244
I3246
S'gl'
p86
ta(I3246
I3248
S'fl'
p87
ta(I3248
I3250
S'cl'
p88
ta(I3250
I3252
S'chr'
p89
ta(I3252
I3254
S'aie'
p90
ta(I3254
I3255
S'yo'
p91
ta(I3255
I3256
S'yaou'
p92
ta(I3256
I3257
S'ya'
p93
ta(I3257
I3258
S'x'
ta(I3258
I3259
S'w'
ta(I3259
I3260
S'vr'
p94
ta(I3260
I3261
S'sl'
p95
ta(I3261
I3262
S'sh'
p96
ta(I3262
I3263
S'pn'
p97
ta(I3263
I3264
S'oi'
p98
ta(I3264
I3265
S'mr'
p99
ta(I3265
I3266
S'ayo'
p100
tasS'medials'
p101
(lp102
(I1
I1356
S'e'
ta(I1356
I2213
S'a'
ta(I2213
I2846
S'o'
ta(I2846
I3447
S'i'
ta(I3447
I3690
S't'
ta(I3690
I3914
S'ou'
p103
ta(I3914
I4135
S'u'
ta(I4135
I4344
S'n'
ta(I4344
I4543
S'r'
ta(I4543
I4740
S'v'
ta(I4740
I4901
S'm'
ta(I4901
I5061
S'l'
ta(I5061
I5210
S'ai'
p104
ta(I5210
I5319
S'ie'
p105
ta(I5319
I5427
S'io'
p106
ta(I5427
I5530
S'll'
p107
ta(I5530
I5632
S'c'
ta(I5632
I5724
S's'
ta(I5724
I5813
S'oi'
p108
ta(I5813
I5892
S'eu'
p109
ta(I5892
I5965
S'ss'
p110
ta(I5965
I6035
S'nt'
p111
ta(I6035
I6099
S'd'
ta(I6099
I6157
S'nd'
p112
ta(I6157
I6211
S'ue'
p113
ta(I6211
I6262
S'p'
ta(I6262
I6313
S'nc'
p114
ta(I6313
I6361
S'st'
p115
ta(I6361
I6408
S'rt'
p116
ta(I6408
I6453
S'q'
ta(I6453
I6497
S'ui'
p117
ta(I6497
I6541
S'g'
ta(I6541
I6583
S'ns'
p118
ta(I6583
I6623
S'ct'
p119
ta(I6623
I6662
S'mm'
p120
ta(I6662
I6699
S'nn'
p121
ta(I6699
I6735
S'ia'
p122
ta(I6735
I6771
S'bl'
p123
ta(I6771
I6806
S'au'
p124
ta(I6806
I6840
S'tr'
p125
ta(I6840
I6874
S'rm'
p126
ta(I6874
I6907
S'ntr'
p127
ta(I6907
I6940
S'b'
ta(I6940
I6969
S'tt'
p128
ta(I6969
I6998
S'rn'
p129
ta(I6998
I7023
S'ei'
p130
ta(I7023
I7047
S'mbr'
p131
ta(I7047
I7070
S'gn'
p132
ta(I7070
I7090
S'rr'
p133
ta(I7090
I7109
S'ua'
p134
ta(I7109
I7127
S'rv'
p135
ta(I7127
I7145
S'nv'
p136
ta(I7145
I7163
S'ff'
p137
ta(I7163
I7181
S'ch'
p138
ta(I7181
I7198
S'rg'
p139
ta(I7198
I7215
S'ieu'
p140
ta(I7215
I7231
S'str'
p141
ta(I7231
I7246
S'rc'
p142
ta(I7246
I7261
S'nst'
p143
ta(I7261
I7276
S'ndr'
p144
ta(I7276
I7291
S'j'
ta(I7291
I7305
S'aie'
p145
ta(I7305
I7318
S'sp'
p146
ta(I7318
I7331
S'mp'
p147
ta(I7331
I7343
S'vr'
p148
ta(I7343
I7355
S'rd'
p149
ta(I7355
I7367
S'pp'
p150
ta(I7367
I7378
S'rs'
p151
ta(I7378
I7389
S'f'
ta(I7389
I7400
S'cc'
p152
ta(I7400
I7410
S'x'
ta(I7410
I7420
S'ng'
p153
ta(I7420
I7430
S'nf'
p154
ta(I7430
I7440
S'mpl'
p155
ta(I7440
I7449
S'sq'
p156
ta(I7449
I7458
S'mbl'
p157
ta(I7458
I7467
S'mb'
p158
ta(I7467
I7475
S'ttr'
p159
ta(I7475
I7483
S'rl'
p160
ta(I7483
I7491
S'rch'
p161
ta(I7491
I7499
S'pt'
p162
ta(I7499
I7506
S'z'
ta(I7506
I7513
S'y'
ta(I7513
I7520
S'sc'
p163
ta(I7520
I7527
S'pr'
p164
ta(I7527
I7534
S'oye'
p165
ta(I7534
I7541
S'lq'
p166
ta(I7541
I7548
S'k'
ta(I7548
I7555
S'cq'
p167
ta(I7555
I7562
S'ay'
p168
ta(I7562
I7568
S'oo'
p169
ta(I7568
I7574
S'nch'
p170
ta(I7574
I7579
S'uee'
p171
ta(I7579
I7584
S'sm'
p172
ta(I7584
I7589
S'pl'
p173
ta(I7589
I7594
S'nsf'
p174
ta(I7594
I7599
S'ngk'
p175
ta(I7599
I7604
S'mpt'
p176
ta(I7604
I7609
S'lt'
p177
ta(I7609
I7614
S'ld'
p178
ta(I7614
I7619
S'gr'
p179
ta(I7619
I7624
S'dd'
p180
ta(I7624
I7629
S'br'
p181
ta(I7629
I7633
S'rq'
p182
ta(I7633
I7637
S'ph'
p183
ta(I7637
I7641
S'iai'
p184
ta(I7641
I7645
S'h'
ta(I7645
I7649
S'ffr'
p185
ta(I7649
I7653
S'eau'
p186
ta(I7653
I7657
S'ea'
p187
ta(I7657
I7661
S'dr'
p188
ta(I7661
I7665
S'cr'
p189
ta(I7665
I7668
S'oeu'
p190
ta(I7668
I7671
S'nstr'
p191
ta(I7671
I7674
S'nsp'
p192
ta(I7674
I7677
S'eo'
p193
ta(I7677
I7679
S'xpr'
p194
ta(I7679
I7681
S'xp'
p195
ta(I7681
I7683
S'uai'
p196
ta(I7683
I7685
S'rsq'
p197
ta(I7685
I7687
S'ppr'
p198
ta(I7687
I7689
S'oue'
p199
ta(I7689
I7691
S'oa'
p200
ta(I7691
I7693
S'nl'
p201
ta(I7693
I7695
S'nct'
p202
ta(I7695
I7697
S'mpr'
p203
ta(I7697
I7699
S'mn'
p204
ta(I7699
I7701
S'lf'
p205
ta(I7701
I7703
S'iau'
p206
ta(I7703
I7705
S'hm'
p207
ta(I7705
I7707
S'gd'
p208
ta(I7707
I7709
S'dm'
p209
ta(I7709
I7711
S'cl'
p210
ta(I7711
I7713
S'ckh'
p211
ta(I7713
I7715
S'cht'
p212
ta(I7715
I7717
S'chn'
p213
ta(I7717
I7719
S'bb'
p214
ta(I7719
I7721
S'aya'
p215
ta(I7721
I7723
S'aa'
p216
ta(I7723
I7724
S'zz'
p217
ta(I7724
I7725
S'ya'
p218
ta(I7725
I7726
S'xt'
p219
ta(I7726
I7727
S'xpl'
p220
ta(I7727
I7728
S'xc'
p221
ta(I7728
I7729
S'w'
ta(I7729
I7730
S'uya'
p222
ta(I7730
I7731
S'uo'
p223
ta(I7731
I7732
S'ueu'
p224
ta(I7732
I7733
S'uei'
p225
ta(I7733
I7734
S'tl'
p226
ta(I7734
I7735
S'th'
p227
ta(I7735
I7736
S'spr'
p228
ta(I7736
I7737
S'sh'
p229
ta(I7737
I7738
S'scr'
p230
ta(I7738
I7739
S'rw'
p231
ta(I7739
I7740
S'rtr'
p232
ta(I7740
I7741
S'rth'
p233
ta(I7741
I7742
S'rst'
p234
ta(I7742
I7743
S'rk'
p235
ta(I7743
I7744
S'rh'
p236
ta(I7744
I7745
S'rdr'
p237
ta(I7745
I7746
S'rcr'
p238
ta(I7746
I7747
S'ppl'
p239
ta(I7747
I7748
S'oyau'
p240
ta(I7748
I7749
S'oya'
p241
ta(I7749
I7750
S'oui'
p242
ta(I7750
I7751
S'oie'
p243
ta(I7751
I7752
S'nz'
p244
ta(I7752
I7753
S'nsm'
p245
ta(I7753
I7754
S'nsh'
p246
ta(I7754
I7755
S'nscr'
p247
ta(I7755
I7756
S'nsc'
p248
ta(I7756
I7757
S'nr'
p249
ta(I7757
I7758
S'nm'
p250
ta(I7758
I7759
S'ngt'
p251
ta(I7759
I7760
S'ngl'
p252
ta(I7760
I7761
S'nfl'
p253
ta(I7761
I7762
S'mw'
p254
ta(I7762
I7763
S'lv'
p255
ta(I7763
I7764
S'lr'
p256
ta(I7764
I7765
S'lph'
p257
ta(I7765
I7766
S'lp'
p258
ta(I7766
I7767
S'lm'
p259
ta(I7767
I7768
S'iu'
p260
ta(I7768
I7769
S'ieue'
p261
ta(I7769
I7770
S'gm'
p262
ta(I7770
I7771
S'gl'
p263
ta(I7771
I7772
S'ggr'
p264
ta(I7772
I7773
S'fgh'
p265
ta(I7773
I7774
S'eoie'
p266
ta(I7774
I7775
S'ee'
p267
ta(I7775
I7776
S'dj'
p268
ta(I7776
I7777
S'dg'
p269
ta(I7777
I7778
S'bt'
p270
ta(I7778
I7779
S'bs'
p271
ta(I7779
I7780
S'bd'
p272
ta(I7780
I7781
S'aye'
p273
ta(I7781
I7782
S'ao'
p274
tas.