(dp1
S'endings'
p2
(lp3
(I1
I827
S'n'
ta(I827
I1326
S'e'
ta(I1326
I1762
S'nd'
p4
ta(I1762
I2159
S'ie'
p5
ta(I2159
I2446
S'r'
ta(I2446
I2669
S's'
ta(I2669
I2836
S'ch'
p6
ta(I2836
I2976
S't'
ta(I2976
I3108
S'l'
ta(I3108
I3203
S'st'
p7
ta(I3203
I3279
S'm'
ta(I3279
I3352
S'cht'
p8
ta(I3352
I3410
S'ng'
p9
ta(I3410
I3464
S'nn'
p10
ta(I3464
I3507
S'g'
ta(I3507
I3544
S'lt'
p11
ta(I3544
I3577
S'rt'
p12
ta(I3577
I3608
S'f'
ta(I3608
I3637
S'gt'
p13
ta(I3637
I3661
S'ck'
p14
ta(I3661
I3684
S'ss'
p15
ta(I3684
I3707
S'ls'
p16
ta(I3707
I3730
S'hr'
p17
ta(I3730
I3752
S'ei'
p18
ta(I3752
I3773
S'bt'
p19
ta(I3773
I3793
S'rn'
p20
ta(I3793
I3810
S'll'
p21
ta(I3810
I3824
S'dtml'
p22
ta(I3824
I3837
S'ln'
p23
ta(I3837
I3850
S'ft'
p24
ta(I3850
I3860
S'tzt'
p25
ta(I3860
I3869
S'lbst'
p26
ta(I3869
I3878
S'au'
p27
ta(I3878
I3886
S'rch'
p28
ta(I3886
I3894
S'llt'
p29
ta(I3894
I3902
S'hn'
p30
ta(I3902
I3909
S'hm'
p31
ta(I3909
I3915
S'rs'
p32
ta(I3915
I3921
S'ht'
p33
ta(I3921
I3927
S'eue'
p34
ta(I3927
I3933
S'b'
ta(I3933
I3938
S'v'
ta(I3938
I3943
S'rd'
p35
ta(I3943
I3948
S'nz'
p36
ta(I3948
I3953
S'nt'
p37
ta(I3953
I3958
S'bs'
p38
ta(I3958
I3962
S'tt'
p39
ta(I3962
I3966
S'sch'
p40
ta(I3966
I3970
S'o'
ta(I3970
I3974
S'ns'
p41
ta(I3974
I3978
S'html'
p42
ta(I3978
I3982
S'gn'
p43
ta(I3982
I3985
S'u'
ta(I3985
I3988
S'tz'
p44
ta(I3988
I3991
S'ts'
p45
ta(I3991
I3994
S'rgt'
p46
ta(I3994
I3997
S'mmt'
p47
ta(I3997
I4000
S'lb'
p48
ta(I4000
I4003
S'k'
ta(I4003
I4006
S'hl'
p49
ta(I4006
I4009
S'ckt'
p50
ta(I4009
I4011
S'sst'
p51
ta(I4011
I4013
S'rnst'
p52
ta(I4013
I4015
S'rft'
p53
ta(I4015
I4017
S'nsch'
p54
ta(I4017
I4019
S'ngt'
p55
ta(I4019
I4021
S'kt'
p56
ta(I4021
I4023
S'eo'
p57
ta(I4023
I4025
S'chts'
p58
ta(I4025
I4027
S'chs'
p59
ta(I4027
I4028
S'y'
ta(I4028
I4029
S'xt'
p60
ta(I4029
I4030
S'rk'
p61
ta(I4030
I4031
S'nnt'
p62
ta(I4031
I4032
S'nm'
p63
ta(I4032
I4033
S'nkt'
p64
ta(I4033
I4034
S'nks'
p65
ta(I4034
I4035
S'ngst'
p66
ta(I4035
I4036
S'ngs'
p67
ta(I4036
I4037
S'mpf'
p68
ta(I4037
I4038
S'lz'
p69
ta(I4038
I4039
S'ld'
p70
ta(I4039
I4040
S'hlt'
p71
ta(I4040
I4041
S'h'
ta(I4041
I4042
S'ff'
p72
ta(I4042
I4043
S'ee'
p73
ta(I4043
I4044
S'd'
ta(I4044
I4045
S'a'
tasS'beginnings'
p74
(lp75
(I1
I532
S'd'
ta(I532
I1024
S's'
ta(I1024
I1384
S'u'
ta(I1384
I1616
S'i'
ta(I1616
I1833
S'w'
ta(I1833
I2022
S'm'
ta(I2022
I2192
S'ei'
p76
ta(I2192
I2349
S'v'
ta(I2349
I2499
S'z'
ta(I2499
I2647
S'k'
ta(I2647
I2789
S'b'
ta(I2789
I2917
S'g'
ta(I2917
I3038
S'a'
ta(I3038
I3154
S'e'
ta(I3154
I3269
S'au'
p77
ta(I3269
I3378
S'l'
ta(I3378
I3459
S'h'
ta(I3459
I3538
S'n'
ta(I3538
I3587
S'f'
ta(I3587
I3631
S'st'
p78
ta(I3631
I3675
S'o'
ta(I3675
I3718
S't'
ta(I3718
I3760
S'r'
ta(I3760
I3791
S'gr'
p79
ta(I3791
I3820
S'br'
p80
ta(I3820
I3842
S'j'
ta(I3842
I3862
S'sk'
p81
ta(I3862
I3881
S'kr'
p82
ta(I3881
I3898
S'zw'
p83
ta(I3898
I3914
S'pr'
p84
ta(I3914
I3929
S'fr'
p85
ta(I3929
I3939
S'schw'
p86
ta(I3939
I3949
S'sch'
p87
ta(I3949
I3959
S'p'
ta(I3959
I3967
S'skr'
p88
ta(I3967
I3975
S'schr'
p89
ta(I3975
I3982
S'sp'
p90
ta(I3982
I3988
S'th'
p91
ta(I3988
I3994
S'kl'
p92
ta(I3994
I3999
S'gl'
p93
ta(I3999
I4003
S'zcl'
p94
ta(I4003
I4006
S'str'
p95
ta(I4006
I4009
S'schn'
p96
ta(I4009
I4011
S'tr'
p97
ta(I4011
I4013
S'schl'
p98
ta(I4013
I4015
S'pl'
p99
ta(I4015
I4017
S'ph'
p100
ta(I4017
I4019
S'dr'
p101
ta(I4019
I4021
S'ch'
p102
ta(I4021
I4023
S'bl'
p103
ta(I4023
I4024
S'spr'
p104
ta(I4024
I4025
S'ps'
p105
ta(I4025
I4026
S'pf'
p106
ta(I4026
I4027
S'fl'
p107
tasS'medials'
p108
(lp109
(I1
I2191
S'e'
ta(I2191
I3005
S'i'
ta(I3005
I3805
S'a'
ta(I3805
I4225
S'o'
ta(I4225
I4507
S'ei'
p110
ta(I4507
I4785
S'u'
ta(I4785
I5042
S'n'
ta(I5042
I5268
S'ie'
p111
ta(I5268
I5492
S't'
ta(I5492
I5662
S'p'
ta(I5662
I5810
S'nd'
p112
ta(I5810
I5957
S'b'
ta(I5957
I6094
S'r'
ta(I6094
I6228
S'g'
ta(I6228
I6352
S's'
ta(I6352
I6440
S'l'
ta(I6440
I6525
S'ch'
p113
ta(I6525
I6607
S'd'
ta(I6607
I6674
S'll'
p114
ta(I6674
I6736
S'h'
ta(I6736
I6795
S'ng'
p115
ta(I6795
I6849
S'au'
p116
ta(I6849
I6900
S'ss'
p117
ta(I6900
I6948
S'm'
ta(I6948
I6994
S'hr'
p118
ta(I6994
I7033
S'sch'
p119
ta(I7033
I7072
S'cht'
p120
ta(I7072
I7110
S'mm'
p121
ta(I7110
I7147
S'nt'
p122
ta(I7147
I7184
S'io'
p123
ta(I7184
I7216
S'rn'
p124
ta(I7216
I7247
S'nsch'
p125
ta(I7247
I7276
S'rst'
p126
ta(I7276
I7304
S'rw'
p127
ta(I7304
I7332
S'f'
ta(I7332
I7360
S'eu'
p128
ta(I7360
I7387
S'nb'
p129
ta(I7387
I7413
S'rl'
p130
ta(I7413
I7439
S'rb'
p131
ta(I7439
I7463
S'lt'
p132
ta(I7463
I7486
S'z'
ta(I7486
I7509
S'y'
ta(I7509
I7532
S'hn'
p133
ta(I7532
I7553
S'nz'
p134
ta(I7553
I7574
S'ndl'
p135
ta(I7574
I7595
S'kt'
p136
ta(I7595
I7615
S'tw'
p137
ta(I7615
I7635
S'tt'
p138
ta(I7635
I7655
S'schr'
p139
ta(I7655
I7674
S'nf'
p140
ta(I7674
I7692
S'nh'
p141
ta(I7692
I7709
S'ns'
p142
ta(I7709
I7725
S'rt'
p143
ta(I7725
I7741
S'rm'
p144
ta(I7741
I7757
S'rg'
p145
ta(I7757
I7772
S'nchm'
p146
ta(I7772
I7787
S'llt'
p147
ta(I7787
I7801
S'w'
ta(I7801
I7815
S'rp'
p148
ta(I7815
I7829
S'rh'
p149
ta(I7829
I7843
S'rd'
p150
ta(I7843
I7856
S'gr'
p151
ta(I7856
I7868
S'rz'
p152
ta(I7868
I7880
S'rtg'
p153
ta(I7880
I7892
S'rk'
p154
ta(I7892
I7904
S'pt'
p155
ta(I7904
I7916
S'nk'
p156
ta(I7916
I7928
S'bj'
p157
ta(I7928
I7939
S'tz'
p158
ta(I7939
I7950
S'nn'
p159
ta(I7950
I7960
S'v'
ta(I7960
I7970
S'rsch'
p160
ta(I7970
I7980
S'nw'
p161
ta(I7980
I7990
S'nv'
p162
ta(I7990
I8000
S'eue'
p163
ta(I8000
I8009
S'st'
p164
ta(I8009
I8018
S'bl'
p165
ta(I8018
I8027
S'aue'
p166
ta(I8027
I8035
S'rf'
p167
ta(I8035
I8043
S'ntw'
p168
ta(I8043
I8051
S'lf'
p169
ta(I8051
I8059
S'ia'
p170
ta(I8059
I8067
S'gst'
p171
ta(I8067
I8075
S'dd'
p172
ta(I8075
I8082
S'th'
p173
ta(I8082
I8089
S'ngfr'
p174
ta(I8089
I8096
S'hl'
p175
ta(I8096
I8103
S'fb'
p176
ta(I8103
I8110
S'ea'
p177
ta(I8110
I8116
S'tr'
p178
ta(I8116
I8122
S'str'
p179
ta(I8122
I8128
S'rkz'
p180
ta(I8128
I8134
S'rkl'
p181
ta(I8134
I8140
S'ntr'
p182
ta(I8140
I8146
S'mpl'
p183
ta(I8146
I8152
S'hm'
p184
ta(I8152
I8158
S'gk'
p185
ta(I8158
I8164
S'ftl'
p186
ta(I8164
I8170
S'fg'
p187
ta(I8170
I8176
S'ee'
p188
ta(I8176
I8182
S'ck'
p189
ta(I8182
I8187
S'sz'
p190
ta(I8187
I8192
S'rnt'
p191
ta(I8192
I8197
S'rdn'
p192
ta(I8197
I8202
S'rchs'
p193
ta(I8202
I8207
S'nst'
p194
ta(I8207
I8212
S'nch'
p195
ta(I8212
I8217
S'mpf'
p196
ta(I8217
I8222
S'ld'
p197
ta(I8222
I8227
S'aa'
p198
ta(I8227
I8231
S'sw'
p199
ta(I8231
I8235
S'pl'
p200
ta(I8235
I8239
S'pf'
p201
ta(I8239
I8243
S'nbl'
p202
ta(I8243
I8247
S'llsch'
p203
ta(I8247
I8251
S'lg'
p204
ta(I8251
I8255
S'k'
ta(I8255
I8259
S'fr'
p205
ta(I8259
I8263
S'ff'
p206
ta(I8263
I8267
S'bst'
p207
ta(I8267
I8271
S'br'
p208
ta(I8271
I8274
S'sh'
p209
ta(I8274
I8277
S'rtr'
p210
ta(I8277
I8280
S'rs'
p211
ta(I8280
I8283
S'rrsch'
p212
ta(I8283
I8286
S'rch'
p213
ta(I8286
I8289
S'pp'
p214
ta(I8289
I8292
S'nm'
p215
ta(I8292
I8295
S'nl'
p216
ta(I8295
I8298
S'ngs'
p217
ta(I8298
I8301
S'mn'
p218
ta(I8301
I8304
S'mg'
p219
ta(I8304
I8307
S'lp'
p220
ta(I8307
I8310
S'llk'
p221
ta(I8310
I8313
S'llg'
p222
ta(I8313
I8316
S'eo'
p223
ta(I8316
I8319
S'eie'
p224
ta(I8319
I8322
S'ckt'
p225
ta(I8322
I8325
S'chn'
p226
ta(I8325
I8328
S'ai'
p227
ta(I8328
I8330
S'xtr'
p228
ta(I8330
I8332
S'xt'
p229
ta(I8332
I8334
S'vschr'
p230
ta(I8334
I8336
S'tzt'
p231
ta(I8336
I8338
S'tzd'
p232
ta(I8338
I8340
S'tsb'
p233
ta(I8340
I8342
S'sr'
p234
ta(I8342
I8344
S'spr'
p235
ta(I8344
I8346
S'skl'
p236
ta(I8346
I8348
S'sdr'
p237
ta(I8348
I8350
S'rspr'
p238
ta(I8350
I8352
S'rr'
p239
ta(I8352
I8354
S'rpr'
p240
ta(I8354
I8356
S'rks'
p241
ta(I8356
I8358
S'rgs'
p242
ta(I8358
I8360
S'ntspr'
p243
ta(I8360
I8362
S'ntf'
p244
ta(I8362
I8364
S'nsw'
p245
ta(I8364
I8366
S'nsfr'
p246
ta(I8366
I8368
S'nntn'
p247
ta(I8368
I8370
S'ngt'
p248
ta(I8370
I8372
S'ngsk'
p249
ta(I8372
I8374
S'ngl'
p250
ta(I8374
I8376
S'ndst'
p251
ta(I8376
I8378
S'ndk'
p252
ta(I8378
I8380
S'ndb'
p253
ta(I8380
I8382
S'ms'
p254
ta(I8382
I8384
S'mmt'
p255
ta(I8384
I8386
S'mk'
p256
ta(I8386
I8388
S'lzw'
p257
ta(I8388
I8390
S'lstr'
p258
ta(I8390
I8392
S'lch'
p259
ta(I8392
I8394
S'lb'
p260
ta(I8394
I8396
S'ktv'
p261
ta(I8396
I8398
S'ktfr'
p262
ta(I8398
I8400
S'hrg'
p263
ta(I8400
I8402
S'gm'
p264
ta(I8402
I8404
S'ft'
p265
ta(I8404
I8406
S'fm'
p266
ta(I8406
I8408
S'fl'
p267
ta(I8408
I8410
S'fk'
p268
ta(I8410
I8412
S'ckst'
p269
ta(I8412
I8414
S'chz'
p270
ta(I8414
I8416
S'chtr'
p271
ta(I8416
I8418
S'chg'
p272
ta(I8418
I8420
S'bz'
p273
ta(I8420
I8422
S'bschn'
p274
ta(I8422
I8424
S'bs'
p275
ta(I8424
I8425
S'xpl'
p276
ta(I8425
I8426
S'x'
ta(I8426
I8427
S'ue'
p277
ta(I8427
I8428
S'tzl'
p278
ta(I8428
I8429
S'ttl'
p279
ta(I8429
I8430
S'ttb'
p280
ta(I8430
I8431
S'tg'
p281
ta(I8431
I8432
S'sv'
p282
ta(I8432
I8433
S'stl'
p283
ta(I8433
I8434
S'ssts'
p284
ta(I8434
I8435
S'sn'
p285
ta(I8435
I8436
S'sm'
p286
ta(I8436
I8437
S'sgl'
p287
ta(I8437
I8438
S'sg'
p288
ta(I8438
I8439
S'rv'
p289
ta(I8439
I8440
S'rtv'
p290
ta(I8440
I8441
S'rschw'
p291
ta(I8441
I8442
S'rns'
p292
ta(I8442
I8443
S'rfr'
p293
ta(I8443
I8444
S'rdsch'
p294
ta(I8444
I8445
S'rbr'
p295
ta(I8445
I8446
S'ph'
p296
ta(I8446
I8447
S'ou'
p297
ta(I8447
I8448
S'ntschl'
p298
ta(I8448
I8449
S'ntg'
p299
ta(I8449
I8450
S'nspr'
p300
ta(I8450
I8451
S'nsm'
p301
ta(I8451
I8452
S'nsdr'
p302
ta(I8452
I8453
S'nschl'
p303
ta(I8453
I8454
S'nnt'
p304
ta(I8454
I8455
S'nnl'
p305
ta(I8455
I8456
S'nkr'
p306
ta(I8456
I8457
S'nkh'
p307
ta(I8457
I8458
S'ngsv'
p308
ta(I8458
I8459
S'ngsl'
p309
ta(I8459
I8460
S'ngsg'
p310
ta(I8460
I8461
S'ngsb'
p311
ta(I8461
I8462
S'ndw'
p312
ta(I8462
I8463
S'ndr'
p313
ta(I8463
I8464
S'mt'
p314
ta(I8464
I8465
S'mp'
p315
ta(I8465
I8466
S'md'
p316
ta(I8466
I8467
S'lv'
p317
ta(I8467
I8468
S'ltsv'
p318
ta(I8468
I8469
S'lsf'
p319
ta(I8469
I8470
S'ls'
p320
ta(I8470
I8471
S'lnd'
p321
ta(I8471
I8472
S'lfsb'
p322
ta(I8472
I8473
S'lbstb'
p323
ta(I8473
I8474
S'j'
ta(I8474
I8475
S'hrn'
p324
ta(I8475
I8476
S'hrh'
p325
ta(I8476
I8477
S'gn'
p326
ta(I8477
I8478
S'gl'
p327
ta(I8478
I8479
S'ggr'
p328
ta(I8479
I8480
S'ftz'
p329
ta(I8480
I8481
S'ftv'
p330
ta(I8481
I8482
S'fst'
p331
ta(I8482
I8483
S'fn'
p332
ta(I8483
I8484
S'fgr'
p333
ta(I8484
I8485
S'ffn'
p334
ta(I8485
I8486
S'eua'
p335
ta(I8486
I8487
S'eei'
p336
ta(I8487
I8488
S'ckl'
p337
ta(I8488
I8489
S'chtsch'
p338
ta(I8489
I8490
S'chtpr'
p339
ta(I8490
I8491
S'chtb'
p340
ta(I8491
I8492
S'chl'
p341
ta(I8492
I8493
S'chk'
p342
ta(I8493
I8494
S'chd'
p343
ta(I8494
I8495
S'bw'
p344
ta(I8495
I8496
S'bt'
p345
ta(I8496
I8497
S'bsz'
p346
ta(I8497
I8498
S'bsh'
p347
ta(I8498
I8499
S'bsch'
p348
ta(I8499
I8500
S'bh'
p349
ta(I8500
I8501
S'aui'
p350
ta(I8501
I8502
S'ao'
p351
tas.