(dp1
S'endings'
p2
(lp3
(I1
I278
S'a'
ta(I278
I436
S'n'
ta(I436
I581
S'u'
ta(I581
I686
S'm'
ta(I686
I750
S'oo'
p4
ta(I750
I810
S'i'
ta(I810
I837
S'ee'
p5
ta(I837
I853
S't'
ta(I853
I863
S'w'
ta(I863
I869
S'aa'
p6
ta(I869
I874
S'd'
ta(I874
I878
S'aaau'
p7
ta(I878
I882
S'aaaoo'
p8
ta(I882
I885
S'th'
p9
ta(I885
I888
S'r'
ta(I888
I891
S'l'
ta(I891
I894
S'iya'
p10
ta(I894
I897
S'h'
ta(I897
I900
S'b'
ta(I900
I903
S'ao'
p11
ta(I903
I905
S'yi'
p12
ta(I905
I907
S'iaa'
p13
ta(I907
I909
S'aaaa'
p14
ta(I909
I911
S'aaa'
p15
ta(I911
I912
S'yee'
p16
ta(I912
I913
S'ya'
p17
ta(I913
I914
S'uaaoo'
p18
ta(I914
I915
S'kh'
p19
ta(I915
I916
S'j'
ta(I916
I917
S'iyaa'
p20
ta(I917
I918
S'iaaoo'
p21
ta(I918
I919
S'gh'
p22
ta(I919
I920
S'f'
ta(I920
I921
S'eeaau'
p23
ta(I921
I922
S'eeaaoo'
p24
ta(I922
I923
S'ayya'
p25
ta(I923
I924
S'aya'
p26
ta(I924
I925
S'aau'
p27
tasS'beginnings'
p28
(lp29
(I1
I161
S'a'
ta(I161
I319
S'w'
ta(I319
I391
S't'
ta(I391
I453
S'f'
ta(I453
I503
S'm'
ta(I503
I553
S'b'
ta(I553
I602
S'ya'
p30
ta(I602
I642
S'l'
ta(I642
I676
S'n'
ta(I676
I705
S'i'
ta(I705
I729
S'yu'
p31
ta(I729
I753
S'aaa'
p32
ta(I753
I776
S's'
ta(I776
I795
S'h'
ta(I795
I811
S'k'
ta(I811
I826
S'q'
ta(I826
I840
S'th'
p33
ta(I840
I851
S'r'
ta(I851
I861
S'o'
ta(I861
I871
S'kh'
p34
ta(I871
I880
S'gh'
p35
ta(I880
I888
S'j'
ta(I888
I894
S'aai'
p36
ta(I894
I899
S'sh'
p37
ta(I899
I904
S'd'
ta(I904
I907
S'yuaaa'
p38
ta(I907
I910
S'ayya'
p39
ta(I910
I913
S'ay'
p40
ta(I913
I915
S'z'
ta(I915
I916
S'yuaa'
p41
ta(I916
I917
S'yoo'
p42
ta(I917
I918
S'yaaai'
p43
ta(I918
I919
S'yaaa'
p44
ta(I919
I920
S'oaa'
p45
ta(I920
I921
S'ee'
p46
ta(I921
I922
S'aya'
p47
ta(I922
I923
S'aau'
p48
ta(I923
I924
S'aaee'
p49
ta(I924
I925
S'aaayu'
p50
tasS'medials'
p51
(lp52
(I1
I995
S'a'
ta(I995
I1345
S'u'
ta(I1345
I1646
S'i'
ta(I1646
I1838
S'n'
ta(I1838
I2025
S'h'
ta(I2025
I2177
S'l'
ta(I2177
I2316
S't'
ta(I2316
I2450
S'r'
ta(I2450
I2570
S'm'
ta(I2570
I2685
S'oo'
p53
ta(I2685
I2796
S'k'
ta(I2796
I2887
S'b'
ta(I2887
I2968
S'd'
ta(I2968
I3042
S'ee'
p54
ta(I3042
I3107
S'aa'
p55
ta(I3107
I3163
S's'
ta(I3163
I3217
S'q'
ta(I3217
I3258
S'th'
p56
ta(I3258
I3299
S'f'
ta(I3299
I3337
S'nn'
p57
ta(I3337
I3372
S'j'
ta(I3372
I3402
S'ay'
p58
ta(I3402
I3430
S'aaa'
p59
ta(I3430
I3456
S'lm'
p60
ta(I3456
I3479
S'll'
p61
ta(I3479
I3500
S'aaaa'
p62
ta(I3500
I3520
S'st'
p63
ta(I3520
I3539
S'tt'
p64
ta(I3539
I3556
S'ai'
p65
ta(I3556
I3572
S'kh'
p66
ta(I3572
I3588
S'aya'
p67
ta(I3588
I3603
S'sh'
p68
ta(I3603
I3617
S'rr'
p69
ta(I3617
I3631
S'gh'
p70
ta(I3631
I3644
S'z'
ta(I3644
I3657
S'w'
ta(I3657
I3670
S'lss'
p71
ta(I3670
I3682
S'bb'
p72
ta(I3682
I3694
S'ao'
p73
ta(I3694
I3705
S'lh'
p74
ta(I3705
I3716
S'lb'
p75
ta(I3716
I3726
S'iya'
p76
ta(I3726
I3735
S'nf'
p77
ta(I3735
I3744
S'ft'
p78
ta(I3744
I3753
S'dd'
p79
ta(I3753
I3761
S'sn'
p80
ta(I3761
I3769
S'mm'
p81
ta(I3769
I3777
S'khr'
p82
ta(I3777
I3785
S'hs'
p83
ta(I3785
I3793
S'ayu'
p84
ta(I3793
I3800
S'nth'
p85
ta(I3800
I3807
S'nt'
p86
ta(I3807
I3814
S'jj'
p87
ta(I3814
I3821
S'ff'
p88
ta(I3821
I3827
S'ya'
p89
ta(I3827
I3833
S'ss'
p90
ta(I3833
I3839
S'sr'
p91
ta(I3839
I3845
S'mt'
p92
ta(I3845
I3851
S'lnn'
p93
ta(I3851
I3857
S'lj'
p94
ta(I3857
I3863
S'kk'
p95
ta(I3863
I3869
S'fs'
p96
ta(I3869
I3874
S'wm'
p97
ta(I3874
I3879
S'wl'
p98
ta(I3879
I3884
S'uaaa'
p99
ta(I3884
I3889
S'thth'
p100
ta(I3889
I3894
S'nk'
p101
ta(I3894
I3899
S'lq'
p102
ta(I3899
I3904
S'kt'
p103
ta(I3904
I3909
S'ia'
p104
ta(I3909
I3914
S'ghf'
p105
ta(I3914
I3918
S'wf'
p106
ta(I3918
I3922
S'sb'
p107
ta(I3922
I3926
S'rh'
p108
ta(I3926
I3930
S'lw'
p109
ta(I3930
I3934
S'hr'
p110
ta(I3934
I3938
S'hh'
p111
ta(I3938
I3942
S'bsh'
p112
ta(I3942
I3946
S'aaaoo'
p113
ta(I3946
I3949
S'zz'
p114
ta(I3949
I3952
S'ww'
p115
ta(I3952
I3955
S'wh'
p116
ta(I3955
I3958
S'wb'
p117
ta(I3958
I3961
S'thn'
p118
ta(I3961
I3964
S'sm'
p119
ta(I3964
I3967
S'sht'
p120
ta(I3967
I3970
S'shr'
p121
ta(I3970
I3973
S'shh'
p122
ta(I3973
I3976
S'rj'
p123
ta(I3976
I3979
S'rb'
p124
ta(I3979
I3982
S'qt'
p125
ta(I3982
I3985
S'qq'
p126
ta(I3985
I3988
S'qd'
p127
ta(I3988
I3991
S'nz'
p128
ta(I3991
I3994
S'ns'
p129
ta(I3994
I3997
S'nq'
p130
ta(I3997
I4000
S'nb'
p131
ta(I4000
I4003
S'ltt'
p132
ta(I4003
I4006
S'lrr'
p133
ta(I4006
I4009
S'ln'
p134
ta(I4009
I4012
S'lkh'
p135
ta(I4012
I4015
S'lf'
p136
ta(I4015
I4018
S'ldd'
p137
ta(I4018
I4021
S'kth'
p138
ta(I4021
I4024
S'kr'
p139
ta(I4024
I4027
S'khz'
p140
ta(I4027
I4030
S'kht'
p141
ta(I4030
I4033
S'khsh'
p142
ta(I4033
I4036
S'khf'
p143
ta(I4036
I4039
S'jz'
p144
ta(I4039
I4042
S'jh'
p145
ta(I4042
I4045
S'iyya'
p146
ta(I4045
I4048
S'iyu'
p147
ta(I4048
I4051
S'ht'
p148
ta(I4051
I4054
S'hm'
p149
ta(I4054
I4057
S'hd'
p150
ta(I4057
I4060
S'ghn'
p151
ta(I4060
I4063
S'dw'
p152
ta(I4063
I4066
S'dl'
p153
ta(I4066
I4069
S'dkh'
p154
ta(I4069
I4072
S'bt'
p155
ta(I4072
I4075
S'bs'
p156
ta(I4075
I4078
S'bl'
p157
ta(I4078
I4081
S'ayyi'
p158
ta(I4081
I4084
S'aaaee'
p159
ta(I4084
I4086
S'zq'
p160
ta(I4086
I4088
S'wn'
p161
ta(I4088
I4090
S'wj'
p162
ta(I4090
I4092
S'uaai'
p163
ta(I4092
I4094
S'tk'
p164
ta(I4094
I4096
S'thl'
p165
ta(I4096
I4098
S'tb'
p166
ta(I4098
I4100
S'sw'
p167
ta(I4100
I4102
S'sl'
p168
ta(I4102
I4104
S'sj'
p169
ta(I4104
I4106
S'sf'
p170
ta(I4106
I4108
S'rt'
p171
ta(I4108
I4110
S'rd'
p172
ta(I4110
I4112
S'qr'
p173
ta(I4112
I4114
S'nj'
p174
ta(I4114
I4116
S'nh'
p175
ta(I4116
I4118
S'mr'
p176
ta(I4118
I4120
S'md'
p177
ta(I4120
I4122
S'lthth'
p178
ta(I4122
I4124
S'lt'
p179
ta(I4124
I4126
S'lgh'
p180
ta(I4126
I4128
S'khw'
p181
ta(I4128
I4130
S'jm'
p182
ta(I4130
I4132
S'iyaaaa'
p183
ta(I4132
I4134
S'iaau'
p184
ta(I4134
I4136
S'iaaa'
p185
ta(I4136
I4138
S'iaa'
p186
ta(I4138
I4140
S'hz'
p187
ta(I4140
I4142
S'hl'
p188
ta(I4142
I4144
S'ghr'
p189
ta(I4144
I4146
S'fr'
p190
ta(I4146
I4148
S'dr'
p191
ta(I4148
I4150
S'bn'
p192
ta(I4150
I4152
S'bk'
p193
ta(I4152
I4154
S'ayaaa'
p194
ta(I4154
I4156
S'aoo'
p195
ta(I4156
I4158
S'aay'
p196
ta(I4158
I4160
S'aau'
p197
ta(I4160
I4162
S'aaoo'
p198
ta(I4162
I4164
S'aai'
p199
ta(I4164
I4166
S'aaauyoo'
p200
ta(I4166
I4168
S'aaaaaa'
p201
ta(I4168
I4169
S'zn'
p202
ta(I4169
I4170
S'wt'
p203
ta(I4170
I4171
S'wd'
p204
ta(I4171
I4172
S'uyoo'
p205
ta(I4172
I4173
S'tr'
p206
ta(I4173
I4174
S'tn'
p207
ta(I4174
I4175
S'tl'
p208
ta(I4175
I4176
S'tht'
p209
ta(I4176
I4177
S'thk'
p210
ta(I4177
I4178
S'thh'
p211
ta(I4178
I4179
S'tgh'
p212
ta(I4179
I4180
S'sk'
p213
ta(I4180
I4181
S'shsh'
p214
ta(I4181
I4182
S'shk'
p215
ta(I4182
I4183
S'shf'
p216
ta(I4183
I4184
S'rw'
p217
ta(I4184
I4185
S'rth'
p218
ta(I4185
I4186
S'rs'
p219
ta(I4186
I4187
S'qs'
p220
ta(I4187
I4188
S'qn'
p221
ta(I4188
I4189
S'qb'
p222
ta(I4189
I4190
S'o'
ta(I4190
I4191
S'mw'
p223
ta(I4191
I4192
S'ms'
p224
ta(I4192
I4193
S'mn'
p225
ta(I4193
I4194
S'ml'
p226
ta(I4194
I4195
S'mk'
p227
ta(I4195
I4196
S'mh'
p228
ta(I4196
I4197
S'lzz'
p229
ta(I4197
I4198
S'lk'
p230
ta(I4198
I4199
S'ld'
p231
ta(I4199
I4200
S'kn'
p232
ta(I4200
I4201
S'km'
p233
ta(I4201
I4202
S'khl'
p234
ta(I4202
I4203
S'kf'
p235
ta(I4203
I4204
S'kb'
p236
ta(I4204
I4205
S'jr'
p237
ta(I4205
I4206
S'jn'
p238
ta(I4206
I4207
S'iyao'
p239
ta(I4207
I4208
S'iaaoo'
p240
ta(I4208
I4209
S'iaai'
p241
ta(I4209
I4210
S'iaaee'
p242
ta(I4210
I4211
S'hn'
p243
ta(I4211
I4212
S'hj'
p244
ta(I4212
I4213
S'hf'
p245
ta(I4213
I4214
S'ghsh'
p246
ta(I4214
I4215
S'ghl'
p247
ta(I4215
I4216
S'ghd'
p248
ta(I4216
I4217
S'fw'
p249
ta(I4217
I4218
S'fq'
p250
ta(I4218
I4219
S'fh'
p251
ta(I4219
I4220
S'eeaaoo'
p252
ta(I4220
I4221
S'eeaaa'
p253
ta(I4221
I4222
S'dt'
p254
ta(I4222
I4223
S'dq'
p255
ta(I4223
I4224
S'dn'
p256
ta(I4224
I4225
S'dk'
p257
ta(I4225
I4226
S'dh'
p258
ta(I4226
I4227
S'df'
p259
ta(I4227
I4228
S'bz'
p260
ta(I4228
I4229
S'ayya'
p261
ta(I4229
I4230
S'ayay'
p262
ta(I4230
I4231
S'aoaa'
p263
ta(I4231
I4232
S'aaau'
p264
ta(I4232
I4233
S'aaai'
p265
tas.