(dp1
S'endings'
p2
(lp3
(I1
I901
S'n'
ta(I901
I1691
S'ng'
p4
ta(I1691
I1861
S'ou'
p5
ta(I1861
I2031
S'ao'
p6
ta(I2031
I2201
S'ai'
p7
ta(I2201
I2341
S'uo'
p8
ta(I2341
I2481
S'ei'
p9
ta(I2481
I2601
S'ui'
p10
ta(I2601
I2701
S'ie'
p11
ta(I2701
I2801
S'iao'
p12
ta(I2801
I2871
S'iu'
p13
ta(I2871
I2931
S'uai'
p14
ta(I2931
I2981
S'ue'
p15
ta(I2981
I3031
S'ua'
p16
ta(I3031
I3081
S'ia'
p17
ta(I3081
I3111
S'u'
ta(I3111
I3141
S'i'
ta(I3141
I3171
S'e'
ta(I3171
I3201
S'a'
ta(I3201
I3211
S'yue'
p18
ta(I3211
I3221
S'you'
p19
ta(I3221
I3231
S'yao'
p20
ta(I3231
I3241
S'hng'
p21
tasS'beginnings'
p22
(lp23
(I1
I201
S'zh'
p24
ta(I201
I401
S'l'
ta(I401
I591
S'sh'
p25
ta(I591
I781
S'n'
ta(I781
I961
S'd'
ta(I961
I1141
S'ch'
p26
ta(I1141
I1301
S't'
ta(I1301
I1461
S'h'
ta(I1461
I1621
S'g'
ta(I1621
I1771
S'k'
ta(I1771
I1911
S'm'
ta(I1911
I2041
S'z'
ta(I2041
I2171
S'p'
ta(I2171
I2291
S'x'
ta(I2291
I2411
S's'
ta(I2411
I2531
S'q'
ta(I2531
I2651
S'j'
ta(I2651
I2771
S'c'
ta(I2771
I2891
S'b'
ta(I2891
I3001
S'r'
ta(I3001
I3061
S'w'
ta(I3061
I3121
S'f'
ta(I3121
I3141
S'yi'
p27
ta(I3141
I3161
S'ya'
p28
ta(I3161
I3171
S'yua'
p29
ta(I3171
I3181
S'yu'
p30
ta(I3181
I3191
S'yo'
p31
ta(I3191
I3201
S'a'
tasS'medials'
p32
(lp33
(I1
I381
S'a'
ta(I381
I731
S'e'
ta(I731
I961
S'ua'
p34
ta(I961
I1141
S'i'
ta(I1141
I1301
S'u'
ta(I1301
I1451
S'ia'
p35
ta(I1451
I1581
S'o'
ta(I1581
I1611
S'io'
p36
tas.