(dp1
S'endings'
p2
(lp3
(I1
I39
S'ng'
p4
ta(I39
I65
S'l'
ta(I65
I81
S'n'
ta(I81
I91
S'm'
ta(I91
I96
S'ae'
p5
ta(I96
I100
S'ye'
p6
ta(I100
I104
S'i'
ta(I104
I106
S'p'
ta(I106
I108
S'a'
ta(I108
I109
S'o'
ta(I109
I110
S'k'
ta(I110
I111
S'e'
tasS'beginnings'
p7
(lp8
(I1
I28
S'b'
ta(I28
I42
S's'
ta(I42
I55
S'g'
ta(I55
I65
S'sh'
p9
ta(I65
I74
S'j'
ta(I74
I83
S'h'
ta(I83
I88
S'w'
ta(I88
I93
S'd'
ta(I93
I97
S'm'
ta(I97
I101
S'gw'
p10
ta(I101
I104
S'n'
ta(I104
I107
S'ch'
p11
ta(I107
I109
S'yo'
p12
ta(I109
I110
S'u'
ta(I110
I111
S'jw'
p13
tasS'medials'
p14
(lp15
(I1
I41
S'u'
ta(I41
I63
S'o'
ta(I63
I72
S'yo'
p16
ta(I72
I81
S'a'
ta(I81
I88
S'i'
ta(I88
I91
S'ae'
p17
tas.