(dp1
S'medials'
p2
(lp3
(I1
I19551
S'e'
tp4
a(I19551
I35796
S'a'
tp5
a(I35796
I50965
S'i'
tp6
a(I50965
I61207
S'o'
tp7
a(I61207
I68342
S'u'
tp8
a(I68342
I73817
S'r'
tp9
a(I73817
I77498
S'n'
tp10
a(I77498
I81029
S't'
tp11
a(I81029
I83129
S'm'
tp12
a(I83129
I85167
S'l'
tp13
a(I85167
I87159
S'k'
tp14
a(I87159
I88980
S'oo'
p15
tp16
a(I88980
I90781
S's'
tp17
a(I90781
I92568
S'd'
tp18
a(I92568
I94235
S'v'
tp19
a(I94235
I95484
S'c'
tp20
a(I95484
I96700
S'p'
tp21
a(I96700
I97881
S'g'
tp22
a(I97881
I98917
S'io'
p23
tp24
a(I98917
I99842
S'ie'
p25
tp26
a(I99842
I100758
S'b'
tp27
a(I100758
I101603
S'nt'
p28
tp29
a(I101603
I102421
S'aa'
p30
tp31
a(I102421
I103197
S'nd'
p32
tp33
a(I103197
I103973
S'ee'
p34
tp35
a(I103973
I104736
S'st'
p36
tp37
a(I104736
I105496
S'ua'
p38
tp39
a(I105496
I106252
S'bb'
p40
tp41
a(I106252
I106980
S'zzl'
p42
tp43
a(I106980
I107660
S'w'
tp44
a(I107660
I108306
S'ou'
p45
tp46
a(I108306
I108916
S'h'
tp47
a(I108916
I109510
S'll'
p48
tp49
a(I109510
I110095
S'ai'
p50
tp51
a(I110095
I110672
S'ea'
p52
tp53
a(I110672
I111210
S'sh'
p54
tp55
a(I111210
I111744
S'j'
tp56
a(I111744
I112276
S'ia'
p57
tp58
a(I112276
I112791
S'nc'
p59
tp60
a(I112791
I113297
S'y'
tp61
a(I113297
I113799
S'pp'
p62
tp63
a(I113799
I114284
S'ii'
p64
tp65
a(I114284
I114764
S'ss'
p66
tp67
a(I114764
I115226
S'ch'
p68
tp69
a(I115226
I115685
S'oa'
p70
tp71
a(I115685
I116127
S'ei'
p72
tp73
a(I116127
I116564
S'rt'
p74
tp75
a(I116564
I116998
S'ck'
p76
tp77
a(I116998
I117405
S'f'
tp78
a(I117405
I117792
S'ppl'
p79
tp80
a(I117792
I118167
S'z'
tp81
a(I118167
I118538
S'rpl'
p82
tp83
a(I118538
I118907
S'ckl'
p84
tp85
a(I118907
I119269
S'ct'
p86
tp87
a(I119269
I119628
S'nn'
p88
tp89
a(I119628
I119987
S'bl'
p90
tp91
a(I119987
I120292
S'ns'
p92
tp93
a(I120292
I120579
S'ue'
p94
tp95
a(I120579
I120850
S'ng'
p96
tp97
a(I120850
I121118
S'rr'
p98
tp99
a(I121118
I121380
S'rm'
p100
tp101
a(I121380
I121636
S'tt'
p102
tp103
a(I121636
I121873
S'oi'
p104
tp105
a(I121873
I122108
S'ui'
p106
tp107
a(I122108
I122341
S'rn'
p108
tp109
a(I122341
I122573
S'mp'
p110
tp111
a(I122573
I122793
S'mm'
p112
tp113
a(I122793
I122990
S'q'
tp114
a(I122990
I123185
S'th'
p115
tp116
a(I123185
I123374
S'rv'
p117
tp118
a(I123374
I123563
S'rd'
p119
tp120
a(I123563
I123751
S'rg'
p121
tp122
a(I123751
I123938
S'au'
p123
tp124
a(I123938
I124122
S'rs'
p125
tp126
a(I124122
I124290
S'tr'
p127
tp128
a(I124290
I124456
S'yaa'
p129
tp130
a(I124456
I124618
S'lt'
p131
tp132
a(I124618
I124778
S'nf'
p133
tp134
a(I124778
I124932
S'ntr'
p135
tp136
a(I124932
I125084
S'str'
p137
tp138
a(I125084
I125234
S'eu'
p139
tp140
a(I125234
I125375
S'nv'
p141
tp142
a(I125375
I125515
S'sp'
p143
tp144
a(I125515
I125653
S'kk'
p145
tp146
a(I125653
I125790
S'x'
tp147
a(I125790
I125927
S'ff'
p148
tp149
a(I125927
I126055
S'sl'
p150
tp151
a(I126055
I126182
S'sc'
p152
tp153
a(I126182
I126309
S'rl'
p154
tp155
a(I126309
I126427
S'ya'
p156
tp157
a(I126427
I126542
S'ts'
p158
tp159
a(I126542
I126656
S'gr'
p160
tp161
a(I126656
I126766
S'cc'
p162
tp163
a(I126766
I126872
S'br'
p164
tp165
a(I126872
I126977
S'rc'
p166
tp167
a(I126977
I127082
S'oe'
p168
tp169
a(I127082
I127182
S'pr'
p170
tp171
a(I127182
I127281
S'mb'
p172
tp173
a(I127281
I127380
S'dh'
p174
tp175
a(I127380
I127476
S'zh'
p176
tp177
a(I127476
I127572
S'pt'
p178
tp179
a(I127572
I127664
S'mpl'
p180
tp181
a(I127664
I127756
S'kt'
p182
tp183
a(I127756
I127848
S'gn'
p184
tp185
a(I127848
I127938
S'ae'
p186
tp187
a(I127938
I128027
S'vk'
p188
tp189
a(I128027
I128113
S'uu'
p190
tp191
a(I128113
I128199
S'bh'
p192
tp193
a(I128199
I128279
S'iou'
p194
tp195
a(I128279
I128357
S'ld'
p196
tp197
a(I128357
I128432
S'mbr'
p198
tp199
a(I128432
I128507
S'kh'
p200
tp201
a(I128507
I128581
S'rb'
p202
tp203
a(I128581
I128649
S'xp'
p204
tp205
a(I128649
I128717
S'ay'
p206
tp207
a(I128717
I128784
S'lk'
p208
tp209
a(I128784
I128849
S'nst'
p210
tp211
a(I128849
I128914
S'nj'
p212
tp213
a(I128914
I128979
S'dd'
p214
tp215
a(I128979
I129043
S'shch'
p216
tp217
a(I129043
I129107
S'dn'
p218
tp219
a(I129107
I129170
S'rp'
p220
tp221
a(I129170
I129233
S'eo'
p222
tp223
a(I129233
I129296
S'aya'
p224
tp225
a(I129296
I129357
S'sk'
p226
tp227
a(I129357
I129417
S'ntl'
p228
tp229
a(I129417
I129474
S'pl'
p230
tp231
a(I129474
I129530
S'rk'
p232
tp233
a(I129530
I129585
S'sch'
p234
tp235
a(I129585
I129640
S'ksh'
p236
tp237
a(I129640
I129694
S'nk'
p238
tp239
a(I129694
I129747
S'rch'
p240
tp241
a(I129747
I129799
S'rf'
p242
tp243
a(I129799
I129850
S'vn'
p244
tp245
a(I129850
I129901
S'tl'
p246
tp247
a(I129901
I129952
S'rw'
p248
tp249
a(I129952
I130003
S'nl'
p250
tp251
a(I130003
I130053
S'hr'
p252
tp253
a(I130053
I130102
S'nh'
p254
tp255
a(I130102
I130150
S'tm'
p256
tp257
a(I130150
I130197
S'lv'
p258
tp259
a(I130197
I130243
S'sm'
p260
tp261
a(I130243
I130289
S'ndl'
p262
tp263
a(I130289
I130335
S'cr'
p264
tp265
a(I130335
I130381
S'chn'
p266
tp267
a(I130381
I130426
S'rh'
p268
tp269
a(I130426
I130471
S'nz'
p270
tp271
a(I130471
I130516
S'ndr'
p272
tp273
a(I130516
I130561
S'ft'
p274
tp275
a(I130561
I130606
S'dm'
p276
tp277
a(I130606
I130651
S'cht'
p278
tp279
a(I130651
I130696
S'bj'
p280
tp281
a(I130696
I130740
S'ngl'
p282
tp283
a(I130740
I130784
S'nb'
p284
tp285
a(I130784
I130827
S'sn'
p286
tp287
a(I130827
I130870
S'rst'
p288
tp289
a(I130870
I130913
S'mbl'
p290
tp291
a(I130913
I130956
S'lm'
p292
tp293
a(I130956
I130998
S'nch'
p294
tp295
a(I130998
I131040
S'cl'
p296
tp297
a(I131040
I131081
S'shh'
p298
tp299
a(I131081
I131122
S'mpr'
p300
tp301
a(I131122
I131162
S'sr'
p302
tp303
a(I131162
I131202
S'lg'
p304
tp305
a(I131202
I131241
S'yi'
p306
tp307
a(I131241
I131280
S'ght'
p308
tp309
a(I131280
I131319
S'fr'
p310
tp311
a(I131319
I131358
S'dr'
p312
tp313
a(I131358
I131397
S'dl'
p314
tp315
a(I131397
I131435
S'xt'
p316
tp317
a(I131435
I131473
S'xc'
p318
tp319
a(I131473
I131511
S'ppr'
p320
tp321
a(I131511
I131549
S'mn'
p322
tp323
a(I131549
I131587
S'gh'
p324
tp325
a(I131587
I131624
S'dg'
p326
tp327
a(I131624
I131660
S'tsj'
p328
tp329
a(I131660
I131696
S'ngr'
p330
tp331
a(I131696
I131731
S'shv'
p332
tp333
a(I131731
I131766
S'chk'
p334
tp335
a(I131766
I131800
S'kr'
p336
tp337
a(I131800
I131834
S'dv'
p338
tp339
a(I131834
I131868
S'bs'
p340
tp341
a(I131868
I131901
S'tch'
p342
tp343
a(I131901
I131934
S'rth'
p344
tp345
a(I131934
I131966
S'scr'
p346
tp347
a(I131966
I131998
S'nstr'
p348
tp349
a(I131998
I132030
S'iu'
p350
tp351
a(I132030
I132062
S'gd'
p352
tp353
a(I132062
I132093
S'zhn'
p354
tp355
a(I132093
I132124
S'tw'
p356
tp357
a(I132124
I132155
S'nsch'
p358
tp359
a(I132155
I132185
S'stl'
p360
tp361
a(I132185
I132215
S'sj'
p362
tp363
a(I132215
I132245
S'lf'
p364
tp365
a(I132245
I132274
S'tn'
p366
tp367
a(I132274
I132303
S'hm'
p368
tp369
a(I132303
I132331
S'nw'
p370
tp371
a(I132331
I132359
S'mpt'
p372
tp373
a(I132359
I132387
S'ls'
p374
tp375
a(I132387
I132415
S'gg'
p376
tp377
a(I132415
I132443
S'aaa'
p378
tp379
a(I132443
I132469
S'nq'
p380
tp381
a(I132469
I132494
S'shk'
p382
tp383
a(I132494
I132519
S'nsp'
p384
tp385
a(I132519
I132544
S'nm'
p386
tp387
a(I132544
I132569
S'ncl'
p388
tp389
a(I132569
I132594
S'ljn'
p390
tp391
a(I132594
I132618
S'yo'
p392
tp393
a(I132618
I132642
S'iya'
p394
tp395
a(I132642
I132666
S'hn'
p396
tp397
a(I132666
I132690
S'fl'
p398
tp399
a(I132690
I132713
S'vr'
p400
tp401
a(I132713
I132736
S'shhn'
p402
tp403
a(I132736
I132759
S'rj'
p404
tp405
a(I132759
I132782
S'nfl'
p406
tp407
a(I132782
I132805
S'lj'
p408
tp409
a(I132805
I132828
S'kl'
p410
tp411
a(I132828
I132851
S'gl'
p412
tp413
a(I132851
I132873
S'zhd'
p414
tp415
a(I132873
I132895
S'xtr'
p416
tp417
a(I132895
I132917
S'stn'
p418
tp419
a(I132917
I132939
S'ph'
p420
tp421
a(I132939
I132961
S'ln'
p422
tp423
a(I132961
I132983
S'aaya'
p424
tp425
a(I132983
I133004
S'ttr'
p426
tp427
a(I133004
I133025
S'oye'
p428
tp429
a(I133025
I133046
S'lp'
p430
tp431
a(I133046
I133067
S'cq'
p432
tp433
a(I133067
I133088
S'bk'
p434
tp435
a(I133088
I133109
S'aaaa'
p436
tp437
a(I133109
I133129
S'xh'
p438
tp439
a(I133129
I133149
S'tk'
p440
tp441
a(I133149
I133169
S'schr'
p442
tp443
a(I133169
I133189
S'rsh'
p444
tp445
a(I133189
I133209
S'nr'
p446
tp447
a(I133209
I133229
S'lsj'
p448
tp449
a(I133229
I133249
S'lb'
p450
tp451
a(I133249
I133268
S'pn'
p452
tp453
a(I133268
I133287
S'nsk'
p454
tp455
a(I133287
I133306
S'nct'
p456
tp457
a(I133306
I133325
S'aye'
p458
tp459
a(I133325
I133343
S'yu'
p460
tp461
a(I133343
I133361
S'shn'
p462
tp463
a(I133361
I133379
S'ieu'
p464
tp465
a(I133379
I133397
S'eou'
p466
tp467
a(I133397
I133414
S'xpl'
p468
tp469
a(I133414
I133431
S'rsk'
p470
tp471
a(I133431
I133448
S'nth'
p472
tp473
a(I133448
I133465
S'np'
p474
tp475
a(I133465
I133482
S'lc'
p476
tp477
a(I133482
I133499
S'bt'
p478
tp479
a(I133499
I133516
S'ao'
p480
tp481
a(I133516
I133532
S'wl'
p482
tp483
a(I133532
I133548
S'uie'
p484
tp485
a(I133548
I133564
S'tg'
p486
tp487
a(I133564
I133580
S'shr'
p488
tp489
a(I133580
I133596
S'shhth'
p490
tp491
a(I133596
I133612
S'shht'
p492
tp493
a(I133612
I133628
S'sd'
p494
tp495
a(I133628
I133644
S'nchm'
p496
tp497
a(I133644
I133660
S'dj'
p498
tp499
a(I133660
I133676
S'ddh'
p500
tp501
a(I133676
I133692
S'bst'
p502
tp503
a(I133692
I133708
S'aie'
p504
tp505
a(I133708
I133723
S'shl'
p506
tp507
a(I133723
I133738
S'sg'
p508
tp509
a(I133738
I133753
S'ps'
p510
tp511
a(I133753
I133768
S'llt'
p512
tp513
a(I133768
I133783
S'gt'
p514
tp515
a(I133783
I133797
S'zn'
p516
tp517
a(I133797
I133811
S'ttl'
p518
tp519
a(I133811
I133825
S'ssk'
p520
tp521
a(I133825
I133839
S'sq'
p522
tp523
a(I133839
I133853
S'rtg'
p524
tp525
a(I133853
I133867
S'rbh'
p526
tp527
a(I133867
I133881
S'lq'
p528
tp529
a(I133881
I133894
S'zd'
p530
tp531
a(I133894
I133907
S'vsh'
p532
tp533
a(I133907
I133920
S'spr'
p534
tp535
a(I133920
I133933
S'rz'
p536
tp537
a(I133933
I133946
S'nsf'
p538
tp539
a(I133946
I133959
S'nkl'
p540
tp541
a(I133959
I133972
S'lss'
p542
tp543
a(I133972
I133985
S'lh'
p544
tp545
a(I133985
I133998
S'bd'
p546
tp547
a(I133998
I134010
S'xcl'
p548
tp549
a(I134010
I134022
S'vl'
p550
tp551
a(I134022
I134034
S'uou'
p552
tp553
a(I134034
I134046
S'sv'
p554
tp555
a(I134046
I134058
S'oy'
p556
tp557
a(I134058
I134070
S'mf'
p558
tp559
a(I134070
I134082
S'jd'
p560
tp561
a(I134082
I134094
S'hl'
p562
tp563
a(I134094
I134106
S'cn'
p564
tp565
a(I134106
I134118
S'bstr'
p566
tp567
a(I134118
I134130
S'ayu'
p568
tp569
a(I134130
I134141
S'wn'
p570
tp571
a(I134141
I134152
S'wh'
p572
tp573
a(I134152
I134163
S'uo'
p574
tp575
a(I134163
I134174
S'tz'
p576
tp577
a(I134174
I134185
S'tv'
p578
tp579
a(I134185
I134196
S'shm'
p580
tp581
a(I134196
I134207
S'sf'
p582
tp583
a(I134207
I134218
S'rpr'
p584
tp585
a(I134218
I134229
S'ntw'
p586
tp587
a(I134229
I134240
S'ncr'
p588
tp589
a(I134240
I134251
S'ms'
p590
tp591
a(I134251
I134262
S'lth'
p592
tp593
a(I134262
I134273
S'iyu'
p594
tp595
a(I134273
I134284
S'iyo'
p596
tp597
a(I134284
I134295
S'gm'
p598
tp599
a(I134295
I134306
S'gk'
p600
tp601
a(I134306
I134317
S'ghn'
p602
tp603
a(I134317
I134328
S'dbh'
p604
tp605
a(I134328
I134339
S'ayi'
p606
tp607
a(I134339
I134349
S'xpr'
p608
tp609
a(I134349
I134359
S'wf'
p610
tp611
a(I134359
I134369
S'uee'
p612
tp613
a(I134369
I134379
S'rtsk'
p614
tp615
a(I134379
I134389
S'rsch'
p616
tp617
a(I134389
I134399
S'rkl'
p618
tp619
a(I134399
I134409
S'rdn'
p620
tp621
a(I134409
I134419
S'rdh'
p622
tp623
a(I134419
I134429
S'oya'
p624
tp625
a(I134429
I134439
S'nsc'
p626
tp627
a(I134439
I134449
S'gst'
p628
tp629
a(I134449
I134459
S'ghtl'
p630
tp631
a(I134459
I134469
S'ghb'
p632
tp633
a(I134469
I134479
S'ftl'
p634
tp635
a(I134479
I134489
S'ffl'
p636
tp637
a(I134489
I134499
S'eue'
p638
tp639
a(I134499
I134509
S'dt'
p640
tp641
a(I134509
I134519
S'bn'
p642
tp643
a(I134519
I134529
S'ayo'
p644
tp645
a(I134529
I134538
S'zv'
p646
tp647
a(I134538
I134547
S'ye'
p648
tp649
a(I134547
I134556
S'wd'
p650
tp651
a(I134556
I134565
S'uya'
p652
tp653
a(I134565
I134574
S'spl'
p654
tp655
a(I134574
I134583
S'sb'
p656
tp657
a(I134583
I134592
S'rsp'
p658
tp659
a(I134592
I134601
S'rshh'
p660
tp661
a(I134601
I134610
S'ml'
p662
tp663
a(I134610
I134619
S'mbh'
p664
tp665
a(I134619
I134628
S'lw'
p666
tp667
a(I134628
I134637
S'ks'
p668
tp669
a(I134637
I134646
S'kn'
p670
tp671
a(I134646
I134655
S'khr'
p672
tp673
a(I134655
I134664
S'ey'
p674
tp675
a(I134664
I134673
S'eau'
p676
tp677
a(I134673
I134682
S'ctl'
p678
tp679
a(I134682
I134691
S'aue'
p680
tp681
a(I134691
I134699
S'vt'
p682
tp683
a(I134699
I134707
S'vd'
p684
tp685
a(I134707
I134715
S'tsk'
p686
tp687
a(I134715
I134723
S'sw'
p688
tp689
a(I134723
I134731
S'stv'
p690
tp691
a(I134731
I134739
S'sth'
p692
tp693
a(I134739
I134747
S'ssm'
p694
tp695
a(I134747
I134755
S'rkh'
p696
tp697
a(I134755
I134763
S'pg'
p698
tp699
a(I134763
I134771
S'nsw'
p700
tp701
a(I134771
I134779
S'nsl'
p702
tp703
a(I134779
I134787
S'nsh'
p704
tp705
a(I134787
I134795
S'ndh'
p706
tp707
a(I134795
I134803
S'mh'
p708
tp709
a(I134803
I134811
S'jt'
p710
tp711
a(I134811
I134819
S'jj'
p712
tp713
a(I134819
I134827
S'hs'
p714
tp715
a(I134827
I134835
S'fg'
p716
tp717
a(I134835
I134843
S'eya'
p718
tp719
a(I134843
I134851
S'eie'
p720
tp721
a(I134851
I134859
S'dk'
p722
tp723
a(I134859
I134867
S'ckn'
p724
tp725
a(I134867
I134874
S'zz'
p726
tp727
a(I134874
I134881
S'zr'
p728
tp729
a(I134881
I134888
S'yaya'
p730
tp731
a(I134888
I134895
S'tp'
p732
tp733
a(I134895
I134902
S'ssl'
p734
tp735
a(I134902
I134909
S'sph'
p736
tp737
a(I134909
I134916
S'snj'
p738
tp739
a(I134916
I134923
S'rtr'
p740
tp741
a(I134923
I134930
S'rtn'
p742
tp743
a(I134930
I134937
S'rtm'
p744
tp745
a(I134937
I134944
S'rbl'
p746
tp747
a(I134944
I134951
S'nsm'
p748
tp749
a(I134951
I134958
S'npr'
p750
tp751
a(I134958
I134965
S'ngfr'
p752
tp753
a(I134965
I134972
S'mt'
p754
tp755
a(I134972
I134979
S'msh'
p756
tp757
a(I134979
I134986
S'md'
p758
tp759
a(I134986
I134993
S'lph'
p760
tp761
a(I134993
I135000
S'lnc'
p762
tp763
a(I135000
I135007
S'jn'
p764
tp765
a(I135007
I135014
S'fs'
p766
tp767
a(I135014
I135021
S'fb'
p768
tp769
a(I135021
I135028
S'dnj'
p770
tp771
a(I135028
I135035
S'bv'
p772
tp773
a(I135035
I135041
S'zl'
p774
tp775
a(I135041
I135047
S'wm'
p776
tp777
a(I135047
I135053
S'uai'
p778
tp779
a(I135053
I135059
S'ttv'
p780
tp781
a(I135059
I135065
S'tpr'
p782
tp783
a(I135065
I135071
S'tj'
p784
tp785
a(I135071
I135077
S'tf'
p786
tp787
a(I135077
I135083
S'td'
p788
tp789
a(I135083
I135089
S'tb'
p790
tp791
a(I135089
I135095
S'scl'
p792
tp793
a(I135095
I135101
S'rzh'
p794
tp795
a(I135101
I135107
S'rtl'
p796
tp797
a(I135107
I135113
S'rq'
p798
tp799
a(I135113
I135119
S'rkz'
p800
tp801
a(I135119
I135125
S'pst'
p802
tp803
a(I135125
I135131
S'ntm'
p804
tp805
a(I135131
I135137
S'nfr'
p806
tp807
a(I135137
I135143
S'lnn'
p808
tp809
a(I135143
I135149
S'jstv'
p810
tp811
a(I135149
I135155
S'iaa'
p812
tp813
a(I135155
I135161
S'ghf'
p814
tp815
a(I135161
I135167
S'ggr'
p816
tp817
a(I135167
I135173
S'dw'
p818
tp819
a(I135173
I135179
S'df'
p820
tp821
a(I135179
I135185
S'ddl'
p822
tp823
a(I135185
I135191
S'dc'
p824
tp825
a(I135191
I135197
S'chchh'
p826
tp827
a(I135197
I135203
S'bbl'
p828
tp829
a(I135203
I135209
S'aiu'
p830
tp831
a(I135209
I135215
S'aayu'
p832
tp833
a(I135215
I135220
S'zdn'
p834
tp835
a(I135220
I135225
S'uyaa'
p836
tp837
a(I135225
I135230
S'uaaa'
p838
tp839
a(I135230
I135235
S'thth'
p840
tp841
a(I135235
I135240
S'thm'
p842
tp843
a(I135240
I135245
S'thdr'
p844
tp845
a(I135245
I135250
S'sz'
p846
tp847
a(I135250
I135255
S'ssn'
p848
tp849
a(I135255
I135260
S'skr'
p850
tp851
a(I135260
I135265
S'rnt'
p852
tp853
a(I135265
I135270
S'rfl'
p854
tp855
a(I135270
I135275
S'rcl'
p856
tp857
a(I135275
I135280
S'rchs'
p858
tp859
a(I135280
I135285
S'oyi'
p860
tp861
a(I135285
I135290
S'nscr'
p862
tp863
a(I135290
I135295
S'npl'
p864
tp865
a(I135295
I135300
S'ngth'
p866
tp867
a(I135300
I135305
S'ngt'
p868
tp869
a(I135305
I135310
S'ngs'
p870
tp871
a(I135310
I135315
S'ngk'
p872
tp873
a(I135315
I135320
S'ndm'
p874
tp875
a(I135320
I135325
S'nbl'
p876
tp877
a(I135325
I135330
S'mst'
p878
tp879
a(I135330
I135335
S'mr'
p880
tp881
a(I135335
I135340
S'mph'
p882
tp883
a(I135340
I135345
S'mpf'
p884
tp885
a(I135345
I135350
S'mk'
p886
tp887
a(I135350
I135355
S'mj'
p888
tp889
a(I135355
I135360
S'lr'
p890
tp891
a(I135360
I135365
S'ktr'
p892
tp893
a(I135365
I135370
S'kshm'
p894
tp895
a(I135370
I135375
S'khn'
p896
tp897
a(I135375
I135380
S'jsk'
p898
tp899
a(I135380
I135385
S'ghl'
p900
tp901
a(I135385
I135390
S'ggl'
p902
tp903
a(I135390
I135395
S'ffr'
p904
tp905
a(I135395
I135400
S'btr'
p906
tp907
a(I135400
I135405
S'bsh'
p908
tp909
a(I135405
I135410
S'bm'
p910
tp911
a(I135410
I135415
S'blj'
p912
tp913
a(I135415
I135420
S'bhr'
p914
tp915
a(I135420
I135425
S'ayaa'
p916
tp917
a(I135425
I135429
S'zm'
p918
tp919
a(I135429
I135433
S'zb'
p920
tp921
a(I135433
I135437
S'xcr'
p922
tp923
a(I135437
I135441
S'wb'
p924
tp925
a(I135441
I135445
S'vsk'
p926
tp927
a(I135445
I135449
S'vch'
p928
tp929
a(I135449
I135453
S'uye'
p930
tp931
a(I135453
I135457
S'tst'
p932
tp933
a(I135457
I135461
S'tchm'
p934
tp935
a(I135461
I135465
S'tc'
p936
tp937
a(I135465
I135469
S'stm'
p938
tp939
a(I135469
I135473
S'shsh'
p940
tp941
a(I135473
I135477
S'sgr'
p942
tp943
a(I135477
I135481
S'sdr'
p944
tp945
a(I135481
I135485
S'rnst'
p946
tp947
a(I135485
I135489
S'rnm'
p948
tp949
a(I135489
I135493
S'rml'
p950
tp951
a(I135493
I135497
S'rdc'
p952
tp953
a(I135497
I135501
S'pk'
p954
tp955
a(I135501
I135505
S'pf'
p956
tp957
a(I135505
I135509
S'oyo'
p958
tp959
a(I135509
I135513
S'oui'
p960
tp961
a(I135513
I135517
S'nx'
p962
tp963
a(I135517
I135521
S'nthr'
p964
tp965
a(I135521
I135525
S'ndw'
p966
tp967
a(I135525
I135529
S'nds'
p968
tp969
a(I135529
I135533
S'ndn'
p970
tp971
a(I135533
I135537
S'ndk'
p972
tp973
a(I135537
I135541
S'mv'
p974
tp975
a(I135541
I135545
S'mpjj'
p976
tp977
a(I135545
I135549
S'mg'
p978
tp979
a(I135549
I135553
S'lzhn'
p980
tp981
a(I135553
I135557
S'ltr'
p982
tp983
a(I135557
I135561
S'lthf'
p984
tp985
a(I135561
I135565
S'llsch'
p986
tp987
a(I135565
I135569
S'lln'
p988
tp989
a(I135569
I135573
S'ljz'
p990
tp991
a(I135573
I135577
S'ljt'
p992
tp993
a(I135577
I135581
S'lgr'
p994
tp995
a(I135581
I135585
S'klj'
p996
tp997
a(I135585
I135589
S'jch'
p998
tp999
a(I135589
I135593
S'iai'
p1000
tp1001
a(I135593
I135597
S'ht'
p1002
tp1003
a(I135597
I135601
S'hh'
p1004
tp1005
a(I135601
I135605
S'gv'
p1006
tp1007
a(I135605
I135609
S'eyu'
p1008
tp1009
a(I135609
I135613
S'eyi'
p1010
tp1011
a(I135613
I135617
S'eei'
p1012
tp1013
a(I135617
I135621
S'ddr'
p1014
tp1015
a(I135621
I135625
S'ctr'
p1016
tp1017
a(I135625
I135629
S'bsc'
p1018
tp1019
a(I135629
I135633
S'aaaoo'
p1020
tp1021
a(I135633
I135636
S'zq'
p1022
tp1023
a(I135636
I135639
S'yuu'
p1024
tp1025
a(I135639
I135642
S'xch'
p1026
tp1027
a(I135642
I135645
S'ww'
p1028
tp1029
a(I135645
I135648
S'ws'
p1030
tp1031
a(I135648
I135651
S'vstv'
p1032
tp1033
a(I135651
I135654
S'vs'
p1034
tp1035
a(I135654
I135657
S'vj'
p1036
tp1037
a(I135657
I135660
S'tth'
p1038
tp1039
a(I135660
I135663
S'thst'
p1040
tp1041
a(I135663
I135666
S'thn'
p1042
tp1043
a(I135666
I135669
S'thh'
p1044
tp1045
a(I135669
I135672
S'thf'
p1046
tp1047
a(I135672
I135675
S'stj'
p1048
tp1049
a(I135675
I135678
S'ssh'
p1050
tp1051
a(I135678
I135681
S'ssf'
p1052
tp1053
a(I135681
I135684
S'sht'
p1054
tp1055
a(I135684
I135687
S'shhv'
p1056
tp1057
a(I135687
I135690
S'rtv'
p1058
tp1059
a(I135690
I135693
S'rtt'
p1060
tp1061
a(I135693
I135696
S'rthl'
p1062
tp1063
a(I135696
I135699
S'rtf'
p1064
tp1065
a(I135699
I135702
S'rspr'
p1066
tp1067
a(I135702
I135705
S'rrsch'
p1068
tp1069
a(I135705
I135708
S'rldl'
p1070
tp1071
a(I135708
I135711
S'rks'
p1072
tp1073
a(I135711
I135714
S'rkm'
p1074
tp1075
a(I135714
I135717
S'rgr'
p1076
tp1077
a(I135717
I135720
S'rdsh'
p1078
tp1079
a(I135720
I135723
S'rdl'
p1080
tp1081
a(I135723
I135726
S'qt'
p1082
tp1083
a(I135726
I135729
S'qq'
p1084
tp1085
a(I135729
I135732
S'qd'
p1086
tp1087
a(I135732
I135735
S'ptr'
p1088
tp1089
a(I135735
I135738
S'pm'
p1090
tp1091
a(I135738
I135741
S'pc'
p1092
tp1093
a(I135741
I135744
S'oue'
p1094
tp1095
a(I135744
I135747
S'ooe'
p1096
tp1097
a(I135747
I135750
S'oeu'
p1098
tp1099
a(I135750
I135753
S'ntn'
p1100
tp1101
a(I135753
I135756
S'nstv'
p1102
tp1103
a(I135756
I135759
S'nspl'
p1104
tp1105
a(I135759
I135762
S'nkn'
p1106
tp1107
a(I135762
I135765
S'ngsk'
p1108
tp1109
a(I135765
I135768
S'ngm'
p1110
tp1111
a(I135768
I135771
S'ngh'
p1112
tp1113
a(I135771
I135774
S'ngb'
p1114
tp1115
a(I135774
I135777
S'ndf'
p1116
tp1117
a(I135777
I135780
S'mw'
p1118
tp1119
a(I135780
I135783
S'ltt'
p1120
tp1121
a(I135783
I135786
S'lrr'
p1122
tp1123
a(I135786
I135789
S'llk'
p1124
tp1125
a(I135789
I135792
S'llg'
p1126
tp1127
a(I135792
I135795
S'lkh'
p1128
tp1129
a(I135795
I135798
S'ldt'
p1130
tp1131
a(I135798
I135801
S'ldn'
p1132
tp1133
a(I135801
I135804
S'ldd'
p1134
tp1135
a(I135804
I135807
S'kw'
p1136
tp1137
a(I135807
I135810
S'kth'
p1138
tp1139
a(I135810
I135813
S'km'
p1140
tp1141
a(I135813
I135816
S'khz'
p1142
tp1143
a(I135816
I135819
S'kht'
p1144
tp1145
a(I135819
I135822
S'khsh'
p1146
tp1147
a(I135822
I135825
S'khf'
p1148
tp1149
a(I135825
I135828
S'jz'
p1150
tp1151
a(I135828
I135831
S'jv'
p1152
tp1153
a(I135831
I135834
S'jnj'
p1154
tp1155
a(I135834
I135837
S'jh'
p1156
tp1157
a(I135837
I135840
S'iyya'
p1158
tp1159
a(I135840
I135843
S'hd'
p1160
tp1161
a(I135843
I135846
S'gsh'
p1162
tp1163
a(I135846
I135849
S'ghtf'
p1164
tp1165
a(I135849
I135852
S'ghr'
p1166
tp1167
a(I135852
I135855
S'fth'
p1168
tp1169
a(I135855
I135858
S'fm'
p1170
tp1171
a(I135858
I135861
S'fh'
p1172
tp1173
a(I135861
I135864
S'eea'
p1174
tp1175
a(I135864
I135867
S'dst'
p1176
tp1177
a(I135867
I135870
S'dsh'
p1178
tp1179
a(I135870
I135873
S'ds'
p1180
tp1181
a(I135873
I135876
S'dkh'
p1182
tp1183
a(I135876
I135879
S'db'
p1184
tp1185
a(I135879
I135882
S'ctf'
p1186
tp1187
a(I135882
I135885
S'ckt'
p1188
tp1189
a(I135885
I135888
S'ckh'
p1190
tp1191
a(I135888
I135891
S'chsh'
p1192
tp1193
a(I135891
I135894
S'chl'
p1194
tp1195
a(I135894
I135897
S'bz'
p1196
tp1197
a(I135897
I135900
S'bscr'
p1198
tp1199
a(I135900
I135903
S'ayyi'
p1200
tp1201
a(I135903
I135906
S'aaye'
p1202
tp1203
a(I135906
I135909
S'aaaee'
p1204
tp1205
a(I135909
I135911
S'zvr'
p1206
tp1207
a(I135911
I135913
S'zk'
p1208
tp1209
a(I135913
I135915
S'zhzh'
p1210
tp1211
a(I135915
I135917
S'zhk'
p1212
tp1213
a(I135917
I135919
S'yau'
p1214
tp1215
a(I135919
I135921
S'yaayo'
p1216
tp1217
a(I135921
I135923
S'xq'
p1218
tp1219
a(I135923
I135925
S'wt'
p1220
tp1221
a(I135925
I135927
S'wsp'
p1222
tp1223
a(I135927
I135929
S'wnw'
p1224
tp1225
a(I135929
I135931
S'wnl'
p1226
tp1227
a(I135931
I135933
S'wkw'
p1228
tp1229
a(I135933
I135935
S'wj'
p1230
tp1231
a(I135935
I135937
S'vschr'
p1232
tp1233
a(I135937
I135939
S'uy'
p1234
tp1235
a(I135939
I135941
S'uaai'
p1236
tp1237
a(I135941
I135943
S'tzt'
p1238
tp1239
a(I135943
I135945
S'tzd'
p1240
tp1241
a(I135945
I135947
S'tsh'
p1242
tp1243
a(I135947
I135949
S'tsb'
p1244
tp1245
a(I135949
I135951
S'trj'
p1246
tp1247
a(I135951
I135953
S'tksh'
p1248
tp1249
a(I135953
I135955
S'tkr'
p1250
tp1251
a(I135955
I135957
S'thr'
p1252
tp1253
a(I135957
I135959
S'thl'
p1254
tp1255
a(I135959
I135961
S'tchw'
p1256
tp1257
a(I135961
I135963
S'stk'
p1258
tp1259
a(I135963
I135965
S'sstv'
p1260
tp1261
a(I135965
I135967
S'ssp'
p1262
tp1263
a(I135967
I135969
S'ssch'
p1264
tp1265
a(I135969
I135971
S'skl'
p1266
tp1267
a(I135971
I135973
S'shhm'
p1268
tp1269
a(I135973
I135975
S'shhk'
p1270
tp1271
a(I135975
I135977
S'shchjj'
p1272
tp1273
a(I135977
I135979
S'rsq'
p1274
tp1275
a(I135979
I135981
S'rkw'
p1276
tp1277
a(I135981
I135983
S'rgs'
p1278
tp1279
a(I135983
I135985
S'rdw'
p1280
tp1281
a(I135985
I135987
S'rdr'
p1282
tp1283
a(I135987
I135989
S'rdhv'
p1284
tp1285
a(I135989
I135991
S'rcr'
p1286
tp1287
a(I135991
I135993
S'rbr'
p1288
tp1289
a(I135993
I135995
S'qr'
p1290
tp1291
a(I135995
I135997
S'pw'
p1292
tp1293
a(I135997
I135999
S'prj'
p1294
tp1295
a(I135999
I136001
S'plj'
p1296
tp1297
a(I136001
I136003
S'pch'
p1298
tp1299
a(I136003
I136005
S'oyu'
p1300
tp1301
a(I136005
I136007
S'oie'
p1302
tp1303
a(I136007
I136009
S'nwh'
p1304
tp1305
a(I136009
I136011
S'ntv'
p1306
tp1307
a(I136011
I136013
S'ntst'
p1308
tp1309
a(I136013
I136015
S'ntspr'
p1310
tp1311
a(I136015
I136017
S'ntf'
p1312
tp1313
a(I136017
I136019
S'nspr'
p1314
tp1315
a(I136019
I136021
S'nsgr'
p1316
tp1317
a(I136021
I136023
S'nsfr'
p1318
tp1319
a(I136023
I136025
S'nntn'
p1320
tp1321
a(I136025
I136027
S'nkr'
p1322
tp1323
a(I136027
I136029
S'nkf'
p1324
tp1325
a(I136029
I136031
S'ngsv'
p1326
tp1327
a(I136031
I136033
S'ngst'
p1328
tp1329
a(I136033
I136035
S'ngsb'
p1330
tp1331
a(I136035
I136037
S'ngd'
p1332
tp1333
a(I136037
I136039
S'ndt'
p1334
tp1335
a(I136039
I136041
S'ndst'
p1336
tp1337
a(I136041
I136043
S'ndsh'
p1338
tp1339
a(I136043
I136045
S'ndb'
p1340
tp1341
a(I136045
I136047
S'nbr'
p1342
tp1343
a(I136047
I136049
S'mps'
p1344
tp1345
a(I136049
I136051
S'mphl'
p1346
tp1347
a(I136051
I136053
S'mmt'
p1348
tp1349
a(I136053
I136055
S'lzw'
p1350
tp1351
a(I136055
I136057
S'ltl'
p1352
tp1353
a(I136057
I136059
S'lthth'
p1354
tp1355
a(I136059
I136061
S'lstr'
p1356
tp1357
a(I136061
I136063
S'lst'
p1358
tp1359
a(I136063
I136065
S'lpl'
p1360
tp1361
a(I136065
I136067
S'llf'
p1362
tp1363
a(I136067
I136069
S'lgh'
p1364
tp1365
a(I136069
I136071
S'ldr'
p1366
tp1367
a(I136071
I136073
S'ldl'
p1368
tp1369
a(I136073
I136075
S'ldb'
p1370
tp1371
a(I136075
I136077
S'lcl'
p1372
tp1373
a(I136077
I136079
S'lch'
p1374
tp1375
a(I136079
I136081
S'kzh'
p1376
tp1377
a(I136081
I136083
S'ktv'
p1378
tp1379
a(I136083
I136085
S'ktfr'
p1380
tp1381
a(I136085
I136087
S'khw'
p1382
tp1383
a(I136087
I136089
S'khl'
p1384
tp1385
a(I136089
I136091
S'kf'
p1386
tp1387
a(I136091
I136093
S'kb'
p1388
tp1389
a(I136093
I136095
S'jsh'
p1390
tp1391
a(I136095
I136097
S'jm'
p1392
tp1393
a(I136097
I136099
S'jk'
p1394
tp1395
a(I136099
I136101
S'iyaaaa'
p1396
tp1397
a(I136101
I136103
S'iyaa'
p1398
tp1399
a(I136103
I136105
S'iiyai'
p1400
tp1401
a(I136105
I136107
S'iiyaa'
p1402
tp1403
a(I136107
I136109
S'iiya'
p1404
tp1405
a(I136109
I136111
S'iau'
p1406
tp1407
a(I136111
I136113
S'iae'
p1408
tp1409
a(I136113
I136115
S'iaau'
p1410
tp1411
a(I136115
I136117
S'iaaa'
p1412
tp1413
a(I136117
I136119
S'hz'
p1414
tp1415
a(I136119
I136121
S'hsv'
p1416
tp1417
a(I136121
I136123
S'hrg'
p1418
tp1419
a(I136123
I136125
S'hkh'
p1420
tp1421
a(I136125
I136127
S'hff'
p1422
tp1423
a(I136127
I136129
S'glj'
p1424
tp1425
a(I136129
I136131
S'ghtn'
p1426
tp1427
a(I136131
I136133
S'gdh'
p1428
tp1429
a(I136133
I136135
S'fst'
p1430
tp1431
a(I136135
I136137
S'fk'
p1432
tp1433
a(I136137
I136139
S'ffn'
p1434
tp1435
a(I136139
I136141
S'eye'
p1436
tp1437
a(I136141
I136143
S'eyaa'
p1438
tp1439
a(I136143
I136145
S'eiu'
p1440
tp1441
a(I136145
I136147
S'dstv'
p1442
tp1443
a(I136147
I136149
S'dcl'
p1444
tp1445
a(I136149
I136151
S'ctn'
p1446
tp1447
a(I136151
I136153
S'cs'
p1448
tp1449
a(I136153
I136155
S'ckw'
p1450
tp1451
a(I136155
I136157
S'ckst'
p1452
tp1453
a(I136157
I136159
S'cksm'
p1454
tp1455
a(I136159
I136161
S'cks'
p1456
tp1457
a(I136161
I136163
S'chz'
p1458
tp1459
a(I136163
I136165
S'chtr'
p1460
tp1461
a(I136165
I136167
S'chg'
p1462
tp1463
a(I136167
I136169
S'ccl'
p1464
tp1465
a(I136169
I136171
S'btl'
p1466
tp1467
a(I136171
I136173
S'btf'
p1468
tp1469
a(I136173
I136175
S'bschn'
p1470
tp1471
a(I136175
I136177
S'bdh'
p1472
tp1473
a(I136177
I136179
S'ayoi'
p1474
tp1475
a(I136179
I136181
S'ayaaa'
p1476
tp1477
a(I136181
I136183
S'aoo'
p1478
tp1479
a(I136183
I136185
S'aayaa'
p1480
tp1481
a(I136185
I136187
S'aay'
p1482
tp1483
a(I136187
I136189
S'aau'
p1484
tp1485
a(I136189
I136191
S'aaoo'
p1486
tp1487
a(I136191
I136193
S'aai'
p1488
tp1489
a(I136193
I136195
S'aaauyoo'
p1490
tp1491
a(I136195
I136197
S'aaaaaa'
p1492
tp1493
a(I136197
I136198
S'zzh'
p1494
tp1495
a(I136198
I136199
S'zhsk'
p1496
tp1497
a(I136199
I136200
S'zhr'
p1498
tp1499
a(I136200
I136201
S'zhm'
p1500
tp1501
a(I136201
I136202
S'zhb'
p1502
tp1503
a(I136202
I136203
S'zgr'
p1504
tp1505
a(I136203
I136204
S'zg'
p1506
tp1507
a(I136204
I136205
S'zdv'
p1508
tp1509
a(I136205
I136206
S'yeya'
p1510
tp1511
a(I136206
I136207
S'yei'
p1512
tp1513
a(I136207
I136208
S'yai'
p1514
tp1515
a(I136208
I136209
S'yaaye'
p1516
tp1517
a(I136209
I136210
S'yaaya'
p1518
tp1519
a(I136210
I136211
S'xf'
p1520
tp1521
a(I136211
I136212
S'wst'
p1522
tp1523
a(I136212
I136213
S'wsl'
p1524
tp1525
a(I136213
I136214
S'wsb'
p1526
tp1527
a(I136214
I136215
S'wr'
p1528
tp1529
a(I136215
I136216
S'wp'
p1530
tp1531
a(I136216
I136217
S'wnr'
p1532
tp1533
a(I136217
I136218
S'wg'
p1534
tp1535
a(I136218
I136219
S'wdn'
p1536
tp1537
a(I136219
I136220
S'wc'
p1538
tp1539
a(I136220
I136221
S'vzn'
p1540
tp1541
a(I136221
I136222
S'vzl'
p1542
tp1543
a(I136222
I136223
S'vtr'
p1544
tp1545
a(I136223
I136224
S'vstr'
p1546
tp1547
a(I136224
I136225
S'vnj'
p1548
tp1549
a(I136225
I136226
S'vlj'
p1550
tp1551
a(I136226
I136227
S'vh'
p1552
tp1553
a(I136227
I136228
S'vg'
p1554
tp1555
a(I136228
I136229
S'vc'
p1556
tp1557
a(I136229
I136230
S'uyu'
p1558
tp1559
a(I136230
I136231
S'uyoo'
p1560
tp1561
a(I136231
I136232
S'uyi'
p1562
tp1563
a(I136232
I136233
S'uoya'
p1564
tp1565
a(I136233
I136234
S'uiu'
p1566
tp1567
a(I136234
I136235
S'uia'
p1568
tp1569
a(I136235
I136236
S'ueu'
p1570
tp1571
a(I136236
I136237
S'uei'
p1572
tp1573
a(I136237
I136238
S'uea'
p1574
tp1575
a(I136238
I136239
S'tzl'
p1576
tp1577
a(I136239
I136240
S'ttb'
p1578
tp1579
a(I136240
I136241
S'tsw'
p1580
tp1581
a(I136241
I136242
S'tsp'
p1582
tp1583
a(I136242
I136243
S'tsf'
p1584
tp1585
a(I136243
I136244
S'tkn'
p1586
tp1587
a(I136244
I136245
S'tht'
p1588
tp1589
a(I136245
I136246
S'ths'
p1590
tp1591
a(I136246
I136247
S'thk'
p1592
tp1593
a(I136247
I136248
S'thc'
p1594
tp1595
a(I136248
I136249
S'tgh'
p1596
tp1597
a(I136249
I136250
S'tchf'
p1598
tp1599
a(I136250
I136251
S'svj'
p1600
tp1601
a(I136251
I136252
S'stw'
p1602
tp1603
a(I136252
I136253
S'stf'
p1604
tp1605
a(I136253
I136254
S'stc'
p1606
tp1607
a(I136254
I136255
S'ssv'
p1608
tp1609
a(I136255
I136256
S'ssts'
p1610
tp1611
a(I136256
I136257
S'ssth'
p1612
tp1613
a(I136257
I136258
S'sst'
p1614
tp1615
a(I136258
I136259
S'snn'
p1616
tp1617
a(I136259
I136260
S'slj'
p1618
tp1619
a(I136260
I136261
S'skh'
p1620
tp1621
a(I136261
I136262
S'shp'
p1622
tp1623
a(I136262
I136263
S'shhp'
p1624
tp1625
a(I136263
I136264
S'shf'
p1626
tp1627
a(I136264
I136265
S'shchh'
p1628
tp1629
a(I136265
I136266
S'shb'
p1630
tp1631
a(I136266
I136267
S'sgl'
p1632
tp1633
a(I136267
I136268
S'rwh'
p1634
tp1635
a(I136268
I136269
S'rvn'
p1636
tp1637
a(I136269
I136270
S'rtwr'
p1638
tp1639
a(I136270
I136271
S'rtsh'
p1640
tp1641
a(I136271
I136272
S'rthw'
p1642
tp1643
a(I136272
I136273
S'rthq'
p1644
tp1645
a(I136273
I136274
S'rthpl'
p1646
tp1647
a(I136274
I136275
S'rstv'
p1648
tp1649
a(I136275
I136276
S'rsl'
p1650
tp1651
a(I136276
I136277
S'rskr'
p1652
tp1653
a(I136277
I136278
S'rshl'
p1654
tp1655
a(I136278
I136279
S'rsg'
p1656
tp1657
a(I136279
I136280
S'rschw'
p1658
tp1659
a(I136280
I136281
S'rsb'
p1660
tp1661
a(I136281
I136282
S'rpt'
p1662
tp1663
a(I136282
I136283
S'rpn'
p1664
tp1665
a(I136283
I136284
S'rph'
p1666
tp1667
a(I136284
I136285
S'rnw'
p1668
tp1669
a(I136285
I136286
S'rns'
p1670
tp1671
a(I136286
I136287
S'rnn'
p1672
tp1673
a(I136287
I136288
S'rnl'
p1674
tp1675
a(I136288
I136289
S'rnj'
p1676
tp1677
a(I136289
I136290
S'rnf'
p1678
tp1679
a(I136290
I136291
S'rmn'
p1680
tp1681
a(I136291
I136292
S'rmh'
p1682
tp1683
a(I136292
I136293
S'rlh'
p1684
tp1685
a(I136293
I136294
S'rkv'
p1686
tp1687
a(I136294
I136295
S'rkst'
p1688
tp1689
a(I136295
I136296
S'rksh'
p1690
tp1691
a(I136296
I136297
S'rkhn'
p1692
tp1693
a(I136297
I136298
S'rgh'
p1694
tp1695
a(I136298
I136299
S'rgdh'
p1696
tp1697
a(I136299
I136300
S'rfr'
p1698
tp1699
a(I136300
I136301
S'rdts'
p1700
tp1701
a(I136301
I136302
S'rdst'
p1702
tp1703
a(I136302
I136303
S'rdsch'
p1704
tp1705
a(I136303
I136304
S'rdhr'
p1706
tp1707
a(I136304
I136305
S'rddh'
p1708
tp1709
a(I136305
I136306
S'rct'
p1710
tp1711
a(I136306
I136307
S'rchn'
p1712
tp1713
a(I136307
I136308
S'rchm'
p1714
tp1715
a(I136308
I136309
S'rbrhm'
p1716
tp1717
a(I136309
I136310
S'qs'
p1718
tp1719
a(I136310
I136311
S'qn'
p1720
tp1721
a(I136311
I136312
S'qb'
p1722
tp1723
a(I136312
I136313
S'pz'
p1724
tp1725
a(I136313
I136314
S'ptl'
p1726
tp1727
a(I136314
I136315
S'prh'
p1728
tp1729
a(I136315
I136316
S'pkr'
p1730
tp1731
a(I136316
I136317
S'pkn'
p1732
tp1733
a(I136317
I136318
S'phr'
p1734
tp1735
a(I136318
I136319
S'pd'
p1736
tp1737
a(I136319
I136320
S'pb'
p1738
tp1739
a(I136320
I136321
S'oyou'
p1740
tp1741
a(I136321
I136322
S'oyau'
p1742
tp1743
a(I136322
I136323
S'ooi'
p1744
tp1745
a(I136323
I136324
S'oia'
p1746
tp1747
a(I136324
I136325
S'oei'
p1748
tp1749
a(I136325
I136326
S'nvl'
p1750
tp1751
a(I136326
I136327
S'ntsl'
p1752
tp1753
a(I136327
I136328
S'ntsk'
p1754
tp1755
a(I136328
I136329
S'ntschl'
p1756
tp1757
a(I136329
I136330
S'ntj'
p1758
tp1759
a(I136330
I136331
S'nthl'
p1760
tp1761
a(I136331
I136332
S'ntg'
p1762
tp1763
a(I136332
I136333
S'ntb'
p1764
tp1765
a(I136333
I136334
S'nsv'
p1766
tp1767
a(I136334
I136335
S'nsspr'
p1768
tp1769
a(I136335
I136336
S'nsg'
p1770
tp1771
a(I136336
I136337
S'nsdr'
p1772
tp1773
a(I136337
I136338
S'nschl'
p1774
tp1775
a(I136338
I136339
S'nph'
p1776
tp1777
a(I136339
I136340
S'nnt'
p1778
tp1779
a(I136340
I136341
S'nnl'
p1780
tp1781
a(I136341
I136342
S'nkv'
p1782
tp1783
a(I136342
I136343
S'nksg'
p1784
tp1785
a(I136343
I136344
S'nkm'
p1786
tp1787
a(I136344
I136345
S'nkh'
p1788
tp1789
a(I136345
I136346
S'nkc'
p1790
tp1791
a(I136346
I136347
S'ngthw'
p1792
tp1793
a(I136347
I136348
S'ngsl'
p1794
tp1795
a(I136348
I136349
S'ngsg'
p1796
tp1797
a(I136349
I136350
S'ngf'
p1798
tp1799
a(I136350
I136351
S'ndwr'
p1800
tp1801
a(I136351
I136352
S'ndsl'
p1802
tp1803
a(I136352
I136353
S'ndsk'
p1804
tp1805
a(I136353
I136354
S'ndp'
p1806
tp1807
a(I136354
I136355
S'ndj'
p1808
tp1809
a(I136355
I136356
S'ndg'
p1810
tp1811
a(I136356
I136357
S'ndd'
p1812
tp1813
a(I136357
I136358
S'nctl'
p1814
tp1815
a(I136358
I136359
S'mstr'
p1816
tp1817
a(I136359
I136360
S'msth'
p1818
tp1819
a(I136360
I136361
S'msp'
p1820
tp1821
a(I136361
I136362
S'mskr'
p1822
tp1823
a(I136362
I136363
S'msj'
p1824
tp1825
a(I136363
I136364
S'msgr'
p1826
tp1827
a(I136364
I136365
S'mptn'
p1828
tp1829
a(I136365
I136366
S'mptl'
p1830
tp1831
a(I136366
I136367
S'mpp'
p1832
tp1833
a(I136367
I136368
S'mpk'
p1834
tp1835
a(I136368
I136369
S'mlj'
p1836
tp1837
a(I136369
I136370
S'lzz'
p1838
tp1839
a(I136370
I136371
S'lvn'
p1840
tp1841
a(I136371
I136372
S'ltsv'
p1842
tp1843
a(I136372
I136373
S'ltp'
p1844
tp1845
a(I136373
I136374
S'lsf'
p1846
tp1847
a(I136374
I136375
S'lpt'
p1848
tp1849
a(I136375
I136376
S'lpn'
p1850
tp1851
a(I136376
I136377
S'lpf'
p1852
tp1853
a(I136377
I136378
S'lnts'
p1854
tp1855
a(I136378
I136379
S'lnd'
p1856
tp1857
a(I136379
I136380
S'lmsh'
p1858
tp1859
a(I136380
I136381
S'lmn'
p1860
tp1861
a(I136381
I136382
S'lml'
p1862
tp1863
a(I136382
I136383
S'llm'
p1864
tp1865
a(I136383
I136384
S'llb'
p1866
tp1867
a(I136384
I136385
S'lksm'
p1868
tp1869
a(I136385
I136386
S'ljstv'
p1870
tp1871
a(I136386
I136387
S'ljsk'
p1872
tp1873
a(I136387
I136388
S'lgtr'
p1874
tp1875
a(I136388
I136389
S'lgl'
p1876
tp1877
a(I136389
I136390
S'lfw'
p1878
tp1879
a(I136390
I136391
S'lfth'
p1880
tp1881
a(I136391
I136392
S'lfsb'
p1882
tp1883
a(I136392
I136393
S'lfp'
p1884
tp1885
a(I136393
I136394
S'lfd'
p1886
tp1887
a(I136394
I136395
S'lfb'
p1888
tp1889
a(I136395
I136396
S'ldw'
p1890
tp1891
a(I136396
I136397
S'ldsh'
p1892
tp1893
a(I136397
I136398
S'ldh'
p1894
tp1895
a(I136398
I136399
S'lbstb'
p1896
tp1897
a(I136399
I136400
S'lbl'
p1898
tp1899
a(I136400
I136401
S'ktn'
p1900
tp1901
a(I136401
I136402
S'ksv'
p1902
tp1903
a(I136402
I136403
S'ksp'
p1904
tp1905
a(I136403
I136404
S'ksj'
p1906
tp1907
a(I136404
I136405
S'kj'
p1908
tp1909
a(I136405
I136406
S'jsj'
p1910
tp1911
a(I136406
I136407
S'js'
p1912
tp1913
a(I136407
I136408
S'jr'
p1914
tp1915
a(I136408
I136409
S'jnch'
p1916
tp1917
a(I136409
I136410
S'jdj'
p1918
tp1919
a(I136410
I136411
S'jc'
p1920
tp1921
a(I136411
I136412
S'jb'
p1922
tp1923
a(I136412
I136413
S'iyao'
p1924
tp1925
a(I136413
I136414
S'iyai'
p1926
tp1927
a(I136414
I136415
S'ioe'
p1928
tp1929
a(I136415
I136416
S'iiyuu'
p1930
tp1931
a(I136416
I136417
S'ieue'
p1932
tp1933
a(I136417
I136418
S'iee'
p1934
tp1935
a(I136418
I136419
S'iaaoo'
p1936
tp1937
a(I136419
I136420
S'iaai'
p1938
tp1939
a(I136420
I136421
S'iaaee'
p1940
tp1941
a(I136421
I136422
S'hsth'
p1942
tp1943
a(I136422
I136423
S'hsh'
p1944
tp1945
a(I136423
I136424
S'hrn'
p1946
tp1947
a(I136424
I136425
S'hrh'
p1948
tp1949
a(I136425
I136426
S'hp'
p1950
tp1951
a(I136426
I136427
S'hk'
p1952
tp1953
a(I136427
I136428
S'hj'
p1954
tp1955
a(I136428
I136429
S'hf'
p1956
tp1957
a(I136429
I136430
S'gth'
p1958
tp1959
a(I136430
I136431
S'gsm'
p1960
tp1961
a(I136431
I136432
S'gs'
p1962
tp1963
a(I136432
I136433
S'gnj'
p1964
tp1965
a(I136433
I136434
S'ghtw'
p1966
tp1967
a(I136434
I136435
S'ghtsh'
p1968
tp1969
a(I136435
I136436
S'ghth'
p1970
tp1971
a(I136436
I136437
S'ghsh'
p1972
tp1973
a(I136437
I136438
S'ghd'
p1974
tp1975
a(I136438
I136439
S'gbh'
p1976
tp1977
a(I136439
I136440
S'gb'
p1978
tp1979
a(I136440
I136441
S'fwh'
p1980
tp1981
a(I136441
I136442
S'fw'
p1982
tp1983
a(I136442
I136443
S'ftz'
p1984
tp1985
a(I136443
I136444
S'ftw'
p1986
tp1987
a(I136444
I136445
S'ftv'
p1988
tp1989
a(I136445
I136446
S'ftr'
p1990
tp1991
a(I136446
I136447
S'ftn'
p1992
tp1993
a(I136447
I136448
S'fstr'
p1994
tp1995
a(I136448
I136449
S'fsk'
p1996
tp1997
a(I136449
I136450
S'fq'
p1998
tp1999
a(I136450
I136451
S'fn'
p2000
tp2001
a(I136451
I136452
S'fgr'
p2002
tp2003
a(I136452
I136453
S'fgh'
p2004
tp2005
a(I136453
I136454
S'ffspr'
p2006
tp2007
a(I136454
I136455
S'ffs'
p2008
tp2009
a(I136455
I136456
S'ffm'
p2010
tp2011
a(I136456
I136457
S'fd'
p2012
tp2013
a(I136457
I136458
S'fbr'
p2014
tp2015
a(I136458
I136459
S'eyo'
p2016
tp2017
a(I136459
I136460
S'eua'
p2018
tp2019
a(I136460
I136461
S'eoo'
p2020
tp2021
a(I136461
I136462
S'eoie'
p2022
tp2023
a(I136462
I136463
S'eeaaoo'
p2024
tp2025
a(I136463
I136464
S'eeaaa'
p2026
tp2027
a(I136464
I136465
S'eaa'
p2028
tp2029
a(I136465
I136466
S'dz'
p2030
tp2031
a(I136466
I136467
S'dsv'
p2032
tp2033
a(I136467
I136468
S'dsl'
p2034
tp2035
a(I136468
I136469
S'dsk'
p2036
tp2037
a(I136469
I136470
S'dsd'
p2038
tp2039
a(I136470
I136471
S'dq'
p2040
tp2041
a(I136471
I136472
S'dpl'
p2042
tp2043
a(I136472
I136473
S'dhv'
p2044
tp2045
a(I136473
I136474
S'dgm'
p2046
tp2047
a(I136474
I136475
S'cm'
p2048
tp2049
a(I136475
I136476
S'ckr'
p2050
tp2051
a(I136476
I136477
S'ckm'
p2052
tp2053
a(I136477
I136478
S'cj'
p2054
tp2055
a(I136478
I136479
S'chtsch'
p2056
tp2057
a(I136479
I136480
S'chtpr'
p2058
tp2059
a(I136480
I136481
S'chtb'
p2060
tp2061
a(I136481
I136482
S'chs'
p2062
tp2063
a(I136482
I136483
S'chr'
p2064
tp2065
a(I136483
I136484
S'chm'
p2066
tp2067
a(I136484
I136485
S'chd'
p2068
tp2069
a(I136485
I136486
S'chch'
p2070
tp2071
a(I136486
I136487
S'cd'
p2072
tp2073
a(I136487
I136488
S'ccr'
p2074
tp2075
a(I136488
I136489
S'cch'
p2076
tp2077
a(I136489
I136490
S'bw'
p2078
tp2079
a(I136490
I136491
S'bsz'
p2080
tp2081
a(I136491
I136492
S'bsch'
p2082
tp2083
a(I136492
I136493
S'bg'
p2084
tp2085
a(I136493
I136494
S'bch'
p2086
tp2087
a(I136494
I136495
S'bcd'
p2088
tp2089
a(I136495
I136496
S'bbr'
p2090
tp2091
a(I136496
I136497
S'ayya'
p2092
tp2093
a(I136497
I136498
S'ayay'
p2094
tp2095
a(I136498
I136499
S'aui'
p2096
tp2097
a(I136499
I136500
S'aoaa'
p2098
tp2099
a(I136500
I136501
S'aayo'
p2100
tp2101
a(I136501
I136502
S'aayaayaa'
p2102
tp2103
a(I136502
I136503
S'aaau'
p2104
tp2105
a(I136503
I136504
S'aaai'
p2106
tp2107
asS'beginnings'
p2108
(lp2109
(I1
I3422
S'g'
tp2110
a(I3422
I6339
S'm'
tp2111
a(I6339
I9148
S'r'
tp2112
a(I9148
I11954
S's'
tp2113
a(I11954
I14583
S'p'
tp2114
a(I14583
I17125
S'b'
tp2115
a(I17125
I19665
S'd'
tp2116
a(I19665
I21877
S'a'
tp2117
a(I21877
I23941
S'k'
tp2118
a(I23941
I25997
S'h'
tp2119
a(I25997
I28039
S'c'
tp2120
a(I28039
I29895
S'w'
tp2121
a(I29895
I31637
S'l'
tp2122
a(I31637
I33217
S'f'
tp2123
a(I33217
I34591
S'n'
tp2124
a(I34591
I35919
S'u'
tp2125
a(I35919
I37243
S'i'
tp2126
a(I37243
I38420
S't'
tp2127
a(I38420
I39596
S'cr'
p2128
tp2129
a(I39596
I40769
S'e'
tp2130
a(I40769
I41914
S'wh'
p2131
tp2132
a(I41914
I42916
S'ch'
p2133
tp2134
a(I42916
I43881
S'v'
tp2135
a(I43881
I44730
S'sl'
p2136
tp2137
a(I44730
I45510
S'q'
tp2138
a(I45510
I46288
S'pr'
p2139
tp2140
a(I46288
I47026
S'o'
tp2141
a(I47026
I47762
S'z'
tp2142
a(I47762
I48313
S'sh'
p2143
tp2144
a(I48313
I48836
S'pl'
p2145
tp2146
a(I48836
I49245
S'j'
tp2147
a(I49245
I49642
S'ou'
p2148
tp2149
a(I49642
I50034
S'ph'
p2150
tp2151
a(I50034
I50419
S'sn'
p2152
tp2153
a(I50419
I50803
S'aaa'
p2154
tp2155
a(I50803
I51184
S'yi'
p2156
tp2157
a(I51184
I51553
S'ee'
p2158
tp2159
a(I51553
I51876
S'st'
p2160
tp2161
a(I51876
I52135
S'tr'
p2162
tp2163
a(I52135
I52389
S'zh'
p2164
tp2165
a(I52389
I52599
S'gr'
p2166
tp2167
a(I52599
I52799
S'br'
p2168
tp2169
a(I52799
I52999
S'au'
p2170
tp2171
a(I52999
I53178
S'ei'
p2172
tp2173
a(I53178
I53331
S'ya'
p2174
tp2175
a(I53331
I53481
S'cht'
p2176
tp2177
a(I53481
I53617
S'sp'
p2178
tp2179
a(I53617
I53742
S'x'
tp2180
a(I53742
I53863
S'th'
p2181
tp2182
a(I53863
I53980
S'kh'
p2183
tp2184
a(I53980
I54090
S'dr'
p2185
tp2186
a(I54090
I54198
S'fr'
p2187
tp2188
a(I54198
I54305
S'cl'
p2189
tp2190
a(I54305
I54395
S'str'
p2191
tp2192
a(I54395
I54484
S'bl'
p2193
tp2194
a(I54484
I54568
S'ts'
p2195
tp2196
a(I54568
I54649
S'fl'
p2197
tp2198
a(I54649
I54727
S'sv'
p2199
tp2200
a(I54727
I54804
S'yu'
p2201
tp2202
a(I54804
I54880
S'sk'
p2203
tp2204
a(I54880
I54953
S'vs'
p2205
tp2206
a(I54953
I55019
S'yo'
p2207
tp2208
a(I55019
I55084
S'bh'
p2209
tp2210
a(I55084
I55148
S'gl'
p2211
tp2212
a(I55148
I55211
S'mn'
p2213
tp2214
a(I55211
I55272
S'kr'
p2215
tp2216
a(I55272
I55327
S'shr'
p2217
tp2218
a(I55327
I55381
S'sc'
p2219
tp2220
a(I55381
I55428
S'aa'
p2221
tp2222
a(I55428
I55474
S'sm'
p2223
tp2224
a(I55474
I55515
S'sw'
p2225
tp2226
a(I55515
I55555
S'ea'
p2227
tp2228
a(I55555
I55588
S'kn'
p2229
tp2230
a(I55588
I55620
S'thr'
p2231
tp2232
a(I55620
I55649
S'wr'
p2233
tp2234
a(I55649
I55678
S'dh'
p2235
tp2236
a(I55678
I55707
S'ai'
p2237
tp2238
a(I55707
I55732
S'tw'
p2239
tp2240
a(I55732
I55756
S'tv'
p2241
tp2242
a(I55756
I55779
S'scr'
p2243
tp2244
a(I55779
I55802
S'sch'
p2245
tp2246
a(I55802
I55824
S'ui'
p2247
tp2248
a(I55824
I55845
S'spr'
p2249
tp2250
a(I55845
I55866
S'kl'
p2251
tp2252
a(I55866
I55885
S'vr'
p2253
tp2254
a(I55885
I55904
S'eu'
p2255
tp2256
a(I55904
I55921
S'zw'
p2257
tp2258
a(I55921
I55937
S'oo'
p2259
tp2260
a(I55937
I55953
S'lj'
p2261
tp2262
a(I55953
I55966
S'vsj'
p2263
tp2264
a(I55966
I55979
S'kt'
p2265
tp2266
a(I55979
I55992
S'dv'
p2267
tp2268
a(I55992
I56004
S'sr'
p2269
tp2270
a(I56004
I56016
S'skr'
p2271
tp2272
a(I56016
I56028
S'ie'
p2273
tp2274
a(I56028
I56039
S'you'
p2275
tp2276
a(I56039
I56050
S'gh'
p2277
tp2278
a(I56050
I56060
S'yua'
p2279
tp2280
a(I56060
I56070
S'vm'
p2281
tp2282
a(I56070
I56080
S'schw'
p2283
tp2284
a(I56080
I56090
S'dlj'
p2285
tp2286
a(I56090
I56100
S'chr'
p2287
tp2288
a(I56100
I56109
S'zn'
p2289
tp2290
a(I56109
I56118
S'sth'
p2291
tp2292
a(I56118
I56127
S'oi'
p2293
tp2294
a(I56127
I56136
S'ae'
p2295
tp2296
a(I56136
I56144
S'schr'
p2297
tp2298
a(I56144
I56152
S'ksh'
p2299
tp2300
a(I56152
I56159
S'zl'
p2301
tp2302
a(I56159
I56166
S'gd'
p2303
tp2304
a(I56166
I56172
S'zv'
p2305
tp2306
a(I56172
I56178
S'vdr'
p2307
tp2308
a(I56178
I56184
S'shch'
p2309
tp2310
a(I56184
I56190
S'dw'
p2311
tp2312
a(I56190
I56196
S'dn'
p2313
tp2314
a(I56196
I56202
S'aai'
p2315
tp2316
a(I56202
I56207
S'yea'
p2317
tp2318
a(I56207
I56212
S'sq'
p2319
tp2320
a(I56212
I56217
S'spl'
p2321
tp2322
a(I56217
I56222
S'rw'
p2323
tp2324
a(I56222
I56227
S'rv'
p2325
tp2326
a(I56227
I56232
S'mc'
p2327
tp2328
a(I56232
I56237
S'ii'
p2329
tp2330
a(I56237
I56242
S'fs'
p2331
tp2332
a(I56242
I56247
S'dnj'
p2333
tp2334
a(I56247
I56252
S'ayu'
p2335
tp2336
a(I56252
I56256
S'zcl'
p2337
tp2338
a(I56256
I56260
S'yie'
p2339
tp2340
a(I56260
I56264
S'ye'
p2341
tp2342
a(I56264
I56268
S'yaa'
p2343
tp2344
a(I56268
I56272
S'vsl'
p2345
tp2346
a(I56272
I56276
S'svj'
p2347
tp2348
a(I56276
I56280
S'sg'
p2349
tp2350
a(I56280
I56284
S'oa'
p2351
tp2352
a(I56284
I56288
S'll'
p2353
tp2354
a(I56288
I56292
S'khr'
p2355
tp2356
a(I56292
I56296
S'gw'
p2357
tp2358
a(I56296
I56300
S'ay'
p2359
tp2360
a(I56300
I56303
S'yuaaa'
p2361
tp2362
a(I56303
I56306
S'yeu'
p2363
tp2364
a(I56306
I56309
S'vn'
p2365
tp2366
a(I56309
I56312
S'vl'
p2367
tp2368
a(I56312
I56315
S'schn'
p2369
tp2370
a(I56315
I56318
S'rh'
p2371
tp2372
a(I56318
I56321
S'prj'
p2373
tp2374
a(I56321
I56324
S'phr'
p2375
tp2376
a(I56324
I56327
S'kv'
p2377
tp2378
a(I56327
I56330
S'gn'
p2379
tp2380
a(I56330
I56333
S'glj'
p2381
tp2382
a(I56333
I56336
S'chl'
p2383
tp2384
a(I56336
I56339
S'chh'
p2385
tp2386
a(I56339
I56342
S'ayya'
p2387
tp2388
a(I56342
I56344
S'zd'
p2389
tp2390
a(I56344
I56346
S'yae'
p2391
tp2392
a(I56346
I56348
S'vzgl'
p2393
tp2394
a(I56348
I56350
S'vt'
p2395
tp2396
a(I56350
I56352
S'vstr'
p2397
tp2398
a(I56352
I56354
S'vpr'
p2399
tp2400
a(I56354
I56356
S'vlj'
p2401
tp2402
a(I56356
I56358
S'vd'
p2403
tp2404
a(I56358
I56360
S'uu'
p2405
tp2406
a(I56360
I56362
S'sph'
p2407
tp2408
a(I56362
I56364
S'skhv'
p2409
tp2410
a(I56364
I56366
S'shl'
p2411
tp2412
a(I56366
I56368
S'sd'
p2413
tp2414
a(I56368
I56370
S'schl'
p2415
tp2416
a(I56370
I56372
S'rj'
p2417
tp2418
a(I56372
I56374
S'ps'
p2419
tp2420
a(I56374
I56376
S'oeya'
p2421
tp2422
a(I56376
I56378
S'mr'
p2423
tp2424
a(I56378
I56380
S'lzh'
p2425
tp2426
a(I56380
I56382
S'khl'
p2427
tp2428
a(I56382
I56384
S'iu'
p2429
tp2430
a(I56384
I56386
S'io'
p2431
tp2432
a(I56386
I56388
S'eya'
p2433
tp2434
a(I56388
I56390
S'aie'
p2435
tp2436
a(I56390
I56391
S'zhm'
p2437
tp2438
a(I56391
I56392
S'zhg'
p2439
tp2440
a(I56392
I56393
S'yuaa'
p2441
tp2442
a(I56393
I56394
S'yoo'
p2443
tp2444
a(I56394
I56395
S'yeo'
p2445
tp2446
a(I56395
I56396
S'yaou'
p2447
tp2448
a(I56396
I56397
S'yaaai'
p2449
tp2450
a(I56397
I56398
S'yaaa'
p2451
tp2452
a(I56398
I56399
S'y'
tp2453
a(I56399
I56400
S'vzr'
p2454
tp2455
a(I56400
I56401
S'vzh'
p2456
tp2457
a(I56401
I56402
S'vzglj'
p2458
tp2459
a(I56402
I56403
S'vzd'
p2460
tp2461
a(I56403
I56404
S'vv'
p2462
tp2463
a(I56404
I56405
S'vsp'
p2464
tp2465
a(I56405
I56406
S'vskr'
p2466
tp2467
a(I56406
I56407
S'vsk'
p2468
tp2469
a(I56407
I56408
S'vp'
p2470
tp2471
a(I56408
I56409
S'vkr'
p2472
tp2473
a(I56409
I56410
S'vkh'
p2474
tp2475
a(I56410
I56411
S'vk'
p2476
tp2477
a(I56411
I56412
S'vch'
p2478
tp2479
a(I56412
I56413
S'tjj'
p2480
tp2481
a(I56413
I56414
S'tj'
p2482
tp2483
a(I56414
I56415
S'thw'
p2484
tp2485
a(I56415
I56416
S'szh'
p2486
tp2487
a(I56416
I56417
S'splj'
p2488
tp2489
a(I56417
I56418
S'skh'
p2490
tp2491
a(I56418
I56419
S'sj'
p2492
tp2493
a(I56419
I56420
S'shv'
p2494
tp2495
a(I56420
I56421
S'sht'
p2496
tp2497
a(I56421
I56422
S'shsh'
p2498
tp2499
a(I56422
I56423
S'shhv'
p2500
tp2501
a(I56423
I56424
S'shhtr'
p2502
tp2503
a(I56424
I56425
S'shh'
p2504
tp2505
a(I56425
I56426
S'sb'
p2506
tp2507
a(I56426
I56427
S'pt'
p2508
tp2509
a(I56427
I56428
S'pn'
p2510
tp2511
a(I56428
I56429
S'plj'
p2512
tp2513
a(I56429
I56430
S'phth'
p2514
tp2515
a(I56430
I56431
S'phl'
p2516
tp2517
a(I56431
I56432
S'pf'
p2518
tp2519
a(I56432
I56433
S'oy'
p2520
tp2521
a(I56433
I56434
S'oue'
p2522
tp2523
a(I56434
I56435
S'oe'
p2524
tp2525
a(I56435
I56436
S'oaa'
p2526
tp2527
a(I56436
I56437
S'nns'
p2528
tp2529
a(I56437
I56438
S'mgl'
p2530
tp2531
a(I56438
I56439
S'mg'
p2532
tp2533
a(I56439
I56440
S'mck'
p2534
tp2535
a(I56440
I56441
S'khv'
p2536
tp2537
a(I56441
I56442
S'jw'
p2538
tp2539
a(I56442
I56443
S'iya'
p2540
tp2541
a(I56443
I56444
S'ia'
p2542
tp2543
a(I56444
I56445
S'grj'
p2544
tp2545
a(I56445
I56446
S'ghn'
p2546
tp2547
a(I56446
I56447
S'eye'
p2548
tp2549
a(I56447
I56448
S'eie'
p2550
tp2551
a(I56448
I56449
S'dl'
p2552
tp2553
a(I56449
I56450
S'dhr'
p2554
tp2555
a(I56450
I56451
S'chrn'
p2556
tp2557
a(I56451
I56452
S'chrm'
p2558
tp2559
a(I56452
I56453
S'bhr'
p2560
tp2561
a(I56453
I56454
S'ayo'
p2562
tp2563
a(I56454
I56455
S'aya'
p2564
tp2565
a(I56455
I56456
S'ao'
p2566
tp2567
a(I56456
I56457
S'aayu'
p2568
tp2569
a(I56457
I56458
S'aau'
p2570
tp2571
a(I56458
I56459
S'aaee'
p2572
tp2573
a(I56459
I56460
S'aaayu'
p2574
tp2575
asS'endings'
p2576
(lp2577
(I1
I6203
S'e'
tp2578
a(I6203
I10747
S'n'
tp2579
a(I10747
I13706
S'ng'
p2580
tp2581
a(I13706
I16654
S'a'
tp2582
a(I16654
I19562
S's'
tp2583
a(I19562
I22252
S'o'
tp2584
a(I22252
I24507
S'p'
tp2585
a(I24507
I26586
S'r'
tp2586
a(I26586
I28403
S'd'
tp2587
a(I28403
I29898
S't'
tp2588
a(I29898
I31236
S'l'
tp2589
a(I31236
I32426
S'y'
tp2590
a(I32426
I33600
S'm'
tp2591
a(I33600
I34759
S'i'
tp2592
a(I34759
I35912
S'sh'
p2593
tp2594
a(I35912
I36919
S'k'
tp2595
a(I36919
I37766
S'u'
tp2596
a(I37766
I38577
S'h'
tp2597
a(I38577
I39386
S'w'
tp2598
a(I39386
I40186
S'ck'
p2599
tp2600
a(I40186
I40906
S'zz'
p2601
tp2602
a(I40906
I41571
S'oo'
p2603
tp2604
a(I41571
I42189
S'ss'
p2605
tp2606
a(I42189
I42789
S'ie'
p2607
tp2608
a(I42789
I43385
S'nt'
p2609
tp2610
a(I43385
I43981
S'aa'
p2611
tp2612
a(I43981
I44562
S'nd'
p2613
tp2614
a(I44562
I45120
S'ch'
p2615
tp2616
a(I45120
I45623
S'ns'
p2617
tp2618
a(I45623
I46069
S'f'
tp2619
a(I46069
I46501
S'ee'
p2620
tp2621
a(I46501
I46926
S'ei'
p2622
tp2623
a(I46926
I47311
S'nk'
p2624
tp2625
a(I47311
I47693
S'rs'
p2626
tp2627
a(I47693
I48069
S'gh'
p2628
tp2629
a(I48069
I48432
S'rp'
p2630
tp2631
a(I48432
I48794
S'aaa'
p2632
tp2633
a(I48794
I49155
S'rr'
p2634
tp2635
a(I49155
I49515
S'rgh'
p2636
tp2637
a(I49515
I49875
S'ooo'
p2638
tp2639
a(I49875
I50235
S'mmmm'
p2640
tp2641
a(I50235
I50595
S'hhhhm'
p2642
tp2643
a(I50595
I50955
S'eee'
p2644
tp2645
a(I50955
I51286
S'st'
p2646
tp2647
a(I51286
I51592
S'j'
tp2648
a(I51592
I51869
S'ue'
p2649
tp2650
a(I51869
I52119
S'iyo'
p2651
tp2652
a(I52119
I52359
S'uu'
p2653
tp2654
a(I52359
I52567
S'ii'
p2655
tp2656
a(I52567
I52768
S'ou'
p2657
tp2658
a(I52768
I52957
S'ui'
p2659
tp2660
a(I52957
I53143
S'ai'
p2661
tp2662
a(I53143
I53325
S'ao'
p2663
tp2664
a(I53325
I53500
S'c'
tp2665
a(I53500
I53657
S'yo'
p2666
tp2667
a(I53657
I53812
S'ia'
p2668
tp2669
a(I53812
I53963
S'g'
tp2670
a(I53963
I54108
S'kh'
p2671
tp2672
a(I54108
I54250
S'uo'
p2673
tp2674
a(I54250
I54391
S'nts'
p2675
tp2676
a(I54391
I54530
S'ls'
p2677
tp2678
a(I54530
I54660
S'rt'
p2679
tp2680
a(I54660
I54785
S'ts'
p2681
tp2682
a(I54785
I54907
S'x'
tp2683
a(I54907
I55007
S'iao'
p2684
tp2685
a(I55007
I55102
S'th'
p2686
tp2687
a(I55102
I55190
S'v'
tp2688
a(I55190
I55275
S'rd'
p2689
tp2690
a(I55275
I55358
S'ngs'
p2691
tp2692
a(I55358
I55441
S'll'
p2693
tp2694
a(I55441
I55521
S'io'
p2695
tp2696
a(I55521
I55597
S'z'
tp2697
a(I55597
I55673
S'iu'
p2698
tp2699
a(I55673
I55747
S'cht'
p2700
tp2701
a(I55747
I55810
S'oe'
p2702
tp2703
a(I55810
I55871
S'ye'
p2704
tp2705
a(I55871
I55932
S'oi'
p2706
tp2707
a(I55932
I55992
S'uai'
p2708
tp2709
a(I55992
I56052
S'lt'
p2710
tp2711
a(I56052
I56110
S'nn'
p2712
tp2713
a(I56110
I56167
S'ua'
p2714
tp2715
a(I56167
I56224
S'rn'
p2716
tp2717
a(I56224
I56281
S'ct'
p2718
tp2719
a(I56281
I56336
S'nds'
p2720
tp2721
a(I56336
I56391
S'ds'
p2722
tp2723
a(I56391
I56445
S'ws'
p2724
tp2725
a(I56445
I56499
S'ght'
p2726
tp2727
a(I56499
I56552
S'b'
tp2728
a(I56552
I56603
S'ms'
p2729
tp2730
a(I56603
I56651
S'sts'
p2731
tp2732
a(I56651
I56697
S'ld'
p2733
tp2734
a(I56697
I56740
S'ya'
p2735
tp2736
a(I56740
I56782
S'ay'
p2737
tp2738
a(I56782
I56823
S'rk'
p2739
tp2740
a(I56823
I56859
S'rts'
p2741
tp2742
a(I56859
I56894
S'cts'
p2743
tp2744
a(I56894
I56927
S'rds'
p2745
tp2746
a(I56927
I56959
S'ft'
p2747
tp2748
a(I56959
I56990
S'ps'
p2749
tp2750
a(I56990
I57019
S'gt'
p2751
tp2752
a(I57019
I57048
S'cks'
p2753
tp2754
a(I57048
I57075
S'lls'
p2755
tp2756
a(I57075
I57102
S'ae'
p2757
tp2758
a(I57102
I57125
S'hr'
p2759
tp2760
a(I57125
I57148
S'ey'
p2761
tp2762
a(I57148
I57171
S'bt'
p2763
tp2764
a(I57171
I57194
S'aaya'
p2765
tp2766
a(I57194
I57216
S'nks'
p2767
tp2768
a(I57216
I57237
S'rm'
p2769
tp2770
a(I57237
I57257
S'wn'
p2771
tp2772
a(I57257
I57275
S'pt'
p2773
tp2774
a(I57275
I57293
S'gs'
p2775
tp2776
a(I57293
I57311
S'cs'
p2777
tp2778
a(I57311
I57328
S'rns'
p2779
tp2780
a(I57328
I57345
S'gn'
p2781
tp2782
a(I57345
I57361
S'yue'
p2783
tp2784
a(I57361
I57377
S'rch'
p2785
tp2786
a(I57377
I57393
S'lk'
p2787
tp2788
a(I57393
I57408
S'tch'
p2789
tp2790
a(I57408
I57423
S'mps'
p2791
tp2792
a(I57423
I57438
S'mp'
p2793
tp2794
a(I57438
I57453
S'ks'
p2795
tp2796
a(I57453
I57467
S'yi'
p2797
tp2798
a(I57467
I57481
S'lf'
p2799
tp2800
a(I57481
I57495
S'dtml'
p2801
tp2802
a(I57495
I57508
S'ln'
p2803
tp2804
a(I57508
I57520
S'zh'
p2805
tp2806
a(I57520
I57532
S'uyu'
p2807
tp2808
a(I57532
I57544
S'ths'
p2809
tp2810
a(I57544
I57556
S'ea'
p2811
tp2812
a(I57556
I57567
S'you'
p2813
tp2814
a(I57567
I57578
S'nch'
p2815
tp2816
a(I57578
I57589
S'lts'
p2817
tp2818
a(I57589
I57600
S'ieu'
p2819
tp2820
a(I57600
I57611
S'hn'
p2821
tp2822
a(I57611
I57622
S'ff'
p2823
tp2824
a(I57622
I57633
S'bs'
p2825
tp2826
a(I57633
I57644
S'ayo'
p2827
tp2828
a(I57644
I57655
S'au'
p2829
tp2830
a(I57655
I57665
S'yao'
p2831
tp2832
a(I57665
I57675
S'tzt'
p2833
tp2834
a(I57675
I57685
S'stj'
p2835
tp2836
a(I57685
I57695
S'sm'
p2837
tp2838
a(I57695
I57705
S'oy'
p2839
tp2840
a(I57705
I57715
S'hng'
p2841
tp2842
a(I57715
I57725
S'fs'
p2843
tp2844
a(I57725
I57735
S'eo'
p2845
tp2846
a(I57735
I57745
S'aia'
p2847
tp2848
a(I57745
I57754
S'rks'
p2849
tp2850
a(I57754
I57763
S'q'
tp2851
a(I57763
I57772
S'nth'
p2852
tp2853
a(I57772
I57781
S'lds'
p2854
tp2855
a(I57781
I57790
S'lbst'
p2856
tp2857
a(I57790
I57799
S'fts'
p2858
tp2859
a(I57799
I57807
S'rth'
p2860
tp2861
a(I57807
I57815
S'rms'
p2862
tp2863
a(I57815
I57823
S'rg'
p2864
tp2865
a(I57823
I57831
S'nc'
p2866
tp2867
a(I57831
I57839
S'mb'
p2868
tp2869
a(I57839
I57847
S'llt'
p2870
tp2871
a(I57847
I57855
S'eau'
p2872
tp2873
a(I57855
I57863
S'aye'
p2874
tp2875
a(I57863
I57871
S'aya'
p2876
tp2877
a(I57871
I57878
S'sk'
p2878
tp2879
a(I57878
I57885
S'oiu'
p2880
tp2881
a(I57885
I57892
S'hm'
p2882
tp2883
a(I57892
I57899
S'ghts'
p2884
tp2885
a(I57899
I57905
S'tt'
p2886
tp2887
a(I57905
I57911
S'sks'
p2888
tp2889
a(I57911
I57917
S'rst'
p2890
tp2891
a(I57917
I57923
S'pts'
p2892
tp2893
a(I57923
I57929
S'ht'
p2894
tp2895
a(I57929
I57935
S'eue'
p2896
tp2897
a(I57935
I57941
S'eu'
p2898
tp2899
a(I57941
I57946
S'xt'
p2900
tp2901
a(I57946
I57951
S'uoi'
p2902
tp2903
a(I57951
I57956
S'rl'
p2904
tp2905
a(I57956
I57961
S'nz'
p2906
tp2907
a(I57961
I57966
S'nths'
p2908
tp2909
a(I57966
I57971
S'lp'
p2910
tp2911
a(I57971
I57976
S'lm'
p2912
tp2913
a(I57976
I57981
S'iya'
p2914
tp2915
a(I57981
I57986
S'gmt'
p2916
tp2917
a(I57986
I57991
S'aiu'
p2918
tp2919
a(I57991
I57995
S'yai'
p2920
tp2921
a(I57995
I57999
S'yaa'
p2922
tp2923
a(I57999
I58003
S'wl'
p2924
tp2925
a(I58003
I58007
S'uiu'
p2926
tp2927
a(I58007
I58011
S'sch'
p2928
tp2929
a(I58011
I58015
S'rths'
p2930
tp2931
a(I58015
I58019
S'rf'
p2932
tp2933
a(I58019
I58023
S'oyo'
p2934
tp2935
a(I58023
I58027
S'oya'
p2936
tp2937
a(I58027
I58031
S'oue'
p2938
tp2939
a(I58031
I58035
S'oie'
p2940
tp2941
a(I58035
I58039
S'mpt'
p2942
tp2943
a(I58039
I58043
S'mn'
p2944
tp2945
a(I58043
I58047
S'mm'
p2946
tp2947
a(I58047
I58051
S'mbs'
p2948
tp2949
a(I58051
I58055
S'lg'
p2950
tp2951
a(I58055
I58059
S'lb'
p2952
tp2953
a(I58059
I58063
S'ioi'
p2954
tp2955
a(I58063
I58067
S'html'
p2956
tp2957
a(I58067
I58071
S'hl'
p2958
tp2959
a(I58071
I58075
S'eyo'
p2960
tp2961
a(I58075
I58079
S'aaau'
p2962
tp2963
a(I58079
I58083
S'aaaoo'
p2964
tp2965
a(I58083
I58086
S'wns'
p2966
tp2967
a(I58086
I58089
S'wls'
p2968
tp2969
a(I58089
I58092
S'tz'
p2970
tp2971
a(I58092
I58095
S'rgt'
p2972
tp2973
a(I58095
I58098
S'rdc'
p2974
tp2975
a(I58098
I58101
S'rcd'
p2976
tp2977
a(I58101
I58104
S'rc'
p2978
tp2979
a(I58104
I58107
S'rb'
p2980
tp2981
a(I58107
I58110
S'ph'
p2982
tp2983
a(I58110
I58113
S'ncts'
p2984
tp2985
a(I58113
I58116
S'mmt'
p2986
tp2987
a(I58116
I58119
S'lth'
p2988
tp2989
a(I58119
I58122
S'lms'
p2990
tp2991
a(I58122
I58125
S'lks'
p2992
tp2993
a(I58125
I58128
S'iii'
p2994
tp2995
a(I58128
I58131
S'dth'
p2996
tp2997
a(I58131
I58134
S'ckt'
p2998
tp2999
a(I58134
I58137
S'chs'
p3000
tp3001
a(I58137
I58140
S'bd'
p3002
tp3003
a(I58140
I58143
S'ayii'
p3004
tp3005
a(I58143
I58146
S'aie'
p3006
tp3007
a(I58146
I58149
S'aayo'
p3008
tp3009
a(I58149
I58152
S'aayai'
p3010
tp3011
a(I58152
I58154
S'yoi'
p3012
tp3013
a(I58154
I58156
S'yayaa'
p3014
tp3015
a(I58156
I58158
S'yau'
p3016
tp3017
a(I58158
I58160
S'xts'
p3018
tp3019
a(I58160
I58162
S'wk'
p3020
tp3021
a(I58162
I58164
S'wd'
p3022
tp3023
a(I58164
I58166
S'uyo'
p3024
tp3025
a(I58166
I58168
S'uy'
p3026
tp3027
a(I58168
I58170
S'uie'
p3028
tp3029
a(I58170
I58172
S'ueue'
p3030
tp3031
a(I58172
I58174
S'sst'
p3032
tp3033
a(I58174
I58176
S'sp'
p3034
tp3035
a(I58176
I58178
S'sms'
p3036
tp3037
a(I58178
I58180
S'sl'
p3038
tp3039
a(I58180
I58182
S'shch'
p3040
tp3041
a(I58182
I58184
S'rv'
p3042
tp3043
a(I58184
I58186
S'rps'
p3044
tp3045
a(I58186
I58188
S'rnst'
p3046
tp3047
a(I58188
I58190
S'rls'
p3048
tp3049
a(I58190
I58192
S'rft'
p3050
tp3051
a(I58192
I58194
S'rbs'
p3052
tp3053
a(I58194
I58196
S'oiea'
p3054
tp3055
a(I58196
I58198
S'oei'
p3056
tp3057
a(I58198
I58200
S'nst'
p3058
tp3059
a(I58200
I58202
S'nsch'
p3060
tp3061
a(I58202
I58204
S'nq'
p3062
tp3063
a(I58204
I58206
S'ngth'
p3064
tp3065
a(I58206
I58208
S'ngt'
p3066
tp3067
a(I58208
I58210
S'ngst'
p3068
tp3069
a(I58210
I58212
S'nct'
p3070
tp3071
a(I58212
I58214
S'mpts'
p3072
tp3073
a(I58214
I58216
S'mns'
p3074
tp3075
a(I58216
I58218
S'lps'
p3076
tp3077
a(I58218
I58220
S'kt'
p3078
tp3079
a(I58220
I58222
S'iyaa'
p3080
tp3081
a(I58222
I58224
S'iaa'
p3082
tp3083
a(I58224
I58226
S'hvm'
p3084
tp3085
a(I58226
I58228
S'gns'
p3086
tp3087
a(I58228
I58230
S'ghs'
p3088
tp3089
a(I58230
I58232
S'fp'
p3090
tp3091
a(I58232
I58234
S'ffs'
p3092
tp3093
a(I58234
I58236
S'eya'
p3094
tp3095
a(I58236
I58238
S'eie'
p3096
tp3097
a(I58238
I58240
S'dths'
p3098
tp3099
a(I58240
I58242
S'dds'
p3100
tp3101
a(I58242
I58244
S'dd'
p3102
tp3103
a(I58244
I58246
S'chts'
p3104
tp3105
a(I58246
I58248
S'chp'
p3106
tp3107
a(I58248
I58250
S'bts'
p3108
tp3109
a(I58250
I58252
S'ayu'
p3110
tp3111
a(I58252
I58254
S'ayou'
p3112
tp3113
a(I58254
I58256
S'ayoo'
p3114
tp3115
a(I58256
I58258
S'ayoi'
p3116
tp3117
a(I58258
I58260
S'aaaa'
p3118
tp3119
a(I58260
I58261
S'yii'
p3120
tp3121
a(I58261
I58262
S'yee'
p3122
tp3123
a(I58262
I58263
S'yea'
p3124
tp3125
a(I58263
I58264
S'yaya'
p3126
tp3127
a(I58264
I58265
S'yaayo'
p3128
tp3129
a(I58265
I58266
S'yaayii'
p3130
tp3131
a(I58266
I58267
S'yaaya'
p3132
tp3133
a(I58267
I58268
S'xth'
p3134
tp3135
a(I58268
I58269
S'wth'
p3136
tp3137
a(I58269
I58270
S'wds'
p3138
tp3139
a(I58270
I58271
S'vp'
p3140
tp3141
a(I58271
I58272
S'vk'
p3142
tp3143
a(I58272
I58273
S'uye'
p3144
tp3145
a(I58273
I58274
S'ueo'
p3146
tp3147
a(I58274
I58275
S'uay'
p3148
tp3149
a(I58275
I58276
S'uaaoo'
p3150
tp3151
a(I58276
I58277
S'tv'
p3152
tp3153
a(I58277
I58278
S'tts'
p3154
tp3155
a(I58278
I58279
S'tmp'
p3156
tp3157
a(I58279
I58280
S'tl'
p3158
tp3159
a(I58280
I58281
S'thms'
p3160
tp3161
a(I58281
I58282
S'tc'
p3162
tp3163
a(I58282
I58283
S'stv'
p3164
tp3165
a(I58283
I58284
S'sstv'
p3166
tp3167
a(I58284
I58285
S'ssrs'
p3168
tp3169
a(I58285
I58286
S'rsts'
p3170
tp3171
a(I58286
I58287
S'rsh'
p3172
tp3173
a(I58287
I58288
S'rnt'
p3174
tp3175
a(I58288
I58289
S'rmth'
p3176
tp3177
a(I58289
I58290
S'rlds'
p3178
tp3179
a(I58290
I58291
S'rld'
p3180
tp3181
a(I58291
I58292
S'rfs'
p3182
tp3183
a(I58292
I58293
S'pwv'
p3184
tp3185
a(I58293
I58294
S'pths'
p3186
tp3187
a(I58294
I58295
S'pth'
p3188
tp3189
a(I58295
I58296
S'pr'
p3190
tp3191
a(I58296
I58297
S'pp'
p3192
tp3193
a(I58297
I58298
S'pmb'
p3194
tp3195
a(I58298
I58299
S'phs'
p3196
tp3197
a(I58299
I58300
S'oyau'
p3198
tp3199
a(I58300
I58301
S'ooi'
p3200
tp3201
a(I58301
I58302
S'oia'
p3202
tp3203
a(I58302
I58303
S'oeiu'
p3204
tp3205
a(I58303
I58304
S'ntz'
p3206
tp3207
a(I58304
I58305
S'nnt'
p3208
tp3209
a(I58305
I58306
S'nns'
p3210
tp3211
a(I58306
I58307
S'nm'
p3212
tp3213
a(I58307
I58308
S'nkt'
p3214
tp3215
a(I58308
I58309
S'ngths'
p3216
tp3217
a(I58309
I58310
S'ngc'
p3218
tp3219
a(I58310
I58311
S'ndt'
p3220
tp3221
a(I58311
I58312
S'ncs'
p3222
tp3223
a(I58312
I58313
S'mrs'
p3224
tp3225
a(I58313
I58314
S'mphs'
p3226
tp3227
a(I58314
I58315
S'mpf'
p3228
tp3229
a(I58315
I58316
S'mnr'
p3230
tp3231
a(I58316
I58317
S'lz'
p3232
tp3233
a(I58317
I58318
S'lst'
p3234
tp3235
a(I58318
I58319
S'lss'
p3236
tp3237
a(I58319
I58320
S'lph'
p3238
tp3239
a(I58320
I58321
S'lfth'
p3240
tp3241
a(I58321
I58322
S'lfs'
p3242
tp3243
a(I58322
I58323
S'lch'
p3244
tp3245
a(I58323
I58324
S'lbs'
p3246
tp3247
a(I58324
I58325
S'iiya'
p3248
tp3249
a(I58325
I58326
S'iiu'
p3250
tp3251
a(I58326
I58327
S'iia'
p3252
tp3253
a(I58327
I58328
S'ieue'
p3254
tp3255
a(I58328
I58329
S'ieiu'
p3256
tp3257
a(I58329
I58330
S'iee'
p3258
tp3259
a(I58330
I58331
S'iaaoo'
p3260
tp3261
a(I58331
I58332
S'hnp'
p3262
tp3263
a(I58332
I58333
S'hlt'
p3264
tp3265
a(I58333
I58334
S'gm'
p3266
tp3267
a(I58334
I58335
S'ghths'
p3268
tp3269
a(I58335
I58336
S'ghth'
p3270
tp3271
a(I58336
I58337
S'ggs'
p3272
tp3273
a(I58337
I58338
S'gg'
p3274
tp3275
a(I58338
I58339
S'ftp'
p3276
tp3277
a(I58339
I58340
S'fth'
p3278
tp3279
a(I58340
I58341
S'eye'
p3280
tp3281
a(I58341
I58342
S'eii'
p3282
tp3283
a(I58342
I58343
S'eeaau'
p3284
tp3285
a(I58343
I58344
S'eeaaoo'
p3286
tp3287
a(I58344
I58345
S'eay'
p3288
tp3289
a(I58345
I58346
S'dvd'
p3290
tp3291
a(I58346
I58347
S'dst'
p3292
tp3293
a(I58347
I58348
S'dm'
p3294
tp3295
a(I58348
I58349
S'cwt'
p3296
tp3297
a(I58349
I58350
S'cr'
p3298
tp3299
a(I58350
I58351
S'cdp'
p3300
tp3301
a(I58351
I58352
S'blv'
p3302
tp3303
a(I58352
I58353
S'ayya'
p3304
tp3305
a(I58353
I58354
S'ayey'
p3306
tp3307
a(I58354
I58355
S'ayaa'
p3308
tp3309
a(I58355
I58356
S'aau'
p3310
tp3311
as.