(dp1
S'endings'
p2
(lp3
(I1
I706
S'a'
ta(I706
I1228
S'o'
ta(I1228
I1620
S'e'
ta(I1620
I1925
S'j'
ta(I1925
I2219
S'i'
ta(I2219
I2481
S'u'
ta(I2481
I2727
S'm'
ta(I2727
I2940
S't'
ta(I2940
I3131
S'k'
ta(I3131
I3275
S'kh'
p4
ta(I3275
I3410
S'r'
ta(I3410
I3529
S'l'
ta(I3529
I3644
S'y'
ta(I3644
I3725
S'v'
ta(I3725
I3803
S'n'
ta(I3803
I3875
S'd'
ta(I3875
I3945
S's'
ta(I3945
I3992
S'ye'
p5
ta(I3992
I4036
S'ie'
p6
ta(I4036
I4075
S'oe'
p7
ta(I4075
I4113
S'ii'
p8
ta(I4113
I4144
S'c'
ta(I4144
I4171
S'z'
ta(I4171
I4197
S'rt'
p9
ta(I4197
I4223
S'ia'
p10
ta(I4223
I4248
S'oi'
p11
ta(I4248
I4271
S'g'
ta(I4271
I4292
S'b'
ta(I4292
I4304
S'zh'
p12
ta(I4304
I4316
S'yi'
p13
ta(I4316
I4328
S'ei'
p14
ta(I4328
I4339
S'ee'
p15
ta(I4339
I4349
S'stj'
p16
ta(I4349
I4359
S'st'
p17
ta(I4359
I4369
S'aia'
p18
ta(I4369
I4378
S'nd'
p19
ta(I4378
I4385
S'sh'
p20
ta(I4385
I4392
S'oiu'
p21
ta(I4392
I4398
S'th'
p22
ta(I4398
I4403
S'ns'
p23
ta(I4403
I4408
S'aiu'
p24
ta(I4408
I4412
S'uiu'
p25
ta(I4412
I4416
S'ue'
p26
ta(I4416
I4420
S'mm'
p27
ta(I4420
I4424
S'iu'
p28
ta(I4424
I4428
S'cts'
p29
ta(I4428
I4432
S'ch'
p30
ta(I4432
I4435
S'rg'
p31
ta(I4435
I4438
S'p'
ta(I4438
I4441
S'ng'
p32
ta(I4441
I4444
S'll'
p33
ta(I4444
I4447
S'io'
p34
ta(I4447
I4450
S'cs'
p35
ta(I4450
I4453
S'bd'
p36
ta(I4453
I4456
S'ai'
p37
ta(I4456
I4458
S'ya'
p38
ta(I4458
I4460
S'sl'
p39
ta(I4460
I4462
S'shch'
p40
ta(I4462
I4464
S'rs'
p41
ta(I4464
I4466
S'nt'
p42
ta(I4466
I4468
S'ms'
p43
ta(I4468
I4470
S'ls'
p44
ta(I4470
I4472
S'iii'
p45
ta(I4472
I4474
S'hvm'
p46
ta(I4474
I4476
S'h'
ta(I4476
I4478
S'chp'
p47
ta(I4478
I4479
S'yo'
p48
ta(I4479
I4480
S'x'
ta(I4480
I4481
S'uie'
p49
ta(I4481
I4482
S'ts'
p50
ta(I4482
I4483
S'tl'
p51
ta(I4483
I4484
S'thms'
p52
ta(I4484
I4485
S'stv'
p53
ta(I4485
I4486
S'sstv'
p54
ta(I4486
I4487
S'sks'
p55
ta(I4487
I4488
S'rst'
p56
ta(I4488
I4489
S'rd'
p57
ta(I4489
I4490
S'pr'
p58
ta(I4490
I4491
S'oia'
p59
ta(I4491
I4492
S'oeiu'
p60
ta(I4492
I4493
S'oei'
p61
ta(I4493
I4494
S'ngs'
p62
ta(I4494
I4495
S'nds'
p63
ta(I4495
I4496
S'lss'
p64
ta(I4496
I4497
S'lg'
p65
ta(I4497
I4498
S'iiu'
p66
ta(I4498
I4499
S'iia'
p67
ta(I4499
I4500
S'ieiu'
p68
ta(I4500
I4501
S'ds'
p69
ta(I4501
I4502
S'ck'
p70
ta(I4502
I4503
S'ay'
p71
tasS'beginnings'
p72
(lp73
(I1
I275
S'p'
ta(I275
I530
S'm'
ta(I530
I776
S'n'
ta(I776
I1002
S'k'
ta(I1002
I1219
S'v'
ta(I1219
I1428
S't'
ta(I1428
I1631
S'd'
ta(I1631
I1822
S's'
ta(I1822
I2006
S'g'
ta(I2006
I2177
S'pr'
p74
ta(I2177
I2345
S'r'
ta(I2345
I2509
S'o'
ta(I2509
I2659
S'cht'
p75
ta(I2659
I2806
S'l'
ta(I2806
I2940
S'b'
ta(I2940
I3045
S'u'
ta(I3045
I3148
S'kh'
p76
ta(I3148
I3231
S'z'
ta(I3231
I3307
S'i'
ta(I3307
I3383
S'e'
ta(I3383
I3456
S'ch'
p77
ta(I3456
I3528
S'vs'
p78
ta(I3528
I3597
S'sl'
p79
ta(I3597
I3660
S'mn'
p80
ta(I3660
I3717
S'sv'
p81
ta(I3717
I3772
S'st'
p82
ta(I3772
I3826
S'zh'
p83
ta(I3826
I3872
S'a'
ta(I3872
I3907
S'kr'
p84
ta(I3907
I3942
S'c'
ta(I3942
I3969
S'tr'
p85
ta(I3969
I3993
S'f'
ta(I3993
I4015
S'tv'
p86
ta(I4015
I4036
S'sk'
p87
ta(I4036
I4055
S'sp'
p88
ta(I4055
I4074
S'sm'
p89
ta(I4074
I4090
S'sh'
p90
ta(I4090
I4106
S'lj'
p91
ta(I4106
I4121
S'str'
p92
ta(I4121
I4136
S'dr'
p93
ta(I4136
I4150
S'j'
ta(I4150
I4164
S'gl'
p94
ta(I4164
I4177
S'vsj'
p95
ta(I4177
I4190
S'vr'
p96
ta(I4190
I4203
S'kt'
p97
ta(I4203
I4213
S'vm'
p98
ta(I4213
I4223
S'th'
p99
ta(I4223
I4233
S'sn'
p100
ta(I4233
I4243
S'dv'
p101
ta(I4243
I4253
S'dlj'
p102
ta(I4253
I4263
S'bl'
p103
ta(I4263
I4272
S'zn'
p104
ta(I4272
I4281
S'w'
ta(I4281
I4290
S'sc'
p105
ta(I4290
I4299
S'kl'
p106
ta(I4299
I4308
S'br'
p107
ta(I4308
I4316
S'sch'
p108
ta(I4316
I4324
S'ie'
p109
ta(I4324
I4332
S'gr'
p110
ta(I4332
I4339
S'zl'
p111
ta(I4339
I4346
S'sr'
p112
ta(I4346
I4353
S'gd'
p113
ta(I4353
I4359
S'zv'
p114
ta(I4359
I4365
S'vdr'
p115
ta(I4365
I4371
S'dn'
p116
ta(I4371
I4376
S'rv'
p117
ta(I4376
I4381
S'pl'
p118
ta(I4381
I4386
S'dnj'
p119
ta(I4386
I4390
S'vsl'
p120
ta(I4390
I4394
S'ts'
p121
ta(I4394
I4398
S'svj'
p122
ta(I4398
I4402
S'sg'
p123
ta(I4402
I4406
S'khr'
p124
ta(I4406
I4410
S'cl'
p125
ta(I4410
I4414
S'au'
p126
ta(I4414
I4417
S'vn'
p127
ta(I4417
I4420
S'skr'
p128
ta(I4420
I4423
S'shch'
p129
ta(I4423
I4426
S'prj'
p130
ta(I4426
I4429
S'h'
ta(I4429
I4432
S'glj'
p131
ta(I4432
I4434
S'zd'
p132
ta(I4434
I4436
S'vzgl'
p133
ta(I4436
I4438
S'vt'
p134
ta(I4438
I4440
S'vstr'
p135
ta(I4440
I4442
S'vpr'
p136
ta(I4442
I4444
S'vlj'
p137
ta(I4444
I4446
S'vl'
p138
ta(I4446
I4448
S'vd'
p139
ta(I4448
I4450
S'skhv'
p140
ta(I4450
I4452
S'sd'
p141
ta(I4452
I4454
S'rj'
p142
ta(I4454
I4456
S'q'
ta(I4456
I4458
S'lzh'
p143
ta(I4458
I4460
S'khl'
p144
ta(I4460
I4462
S'gn'
p145
ta(I4462
I4463
S'zhm'
p146
ta(I4463
I4464
S'zhg'
p147
ta(I4464
I4465
S'vzr'
p148
ta(I4465
I4466
S'vzh'
p149
ta(I4466
I4467
S'vzglj'
p150
ta(I4467
I4468
S'vzd'
p151
ta(I4468
I4469
S'vv'
p152
ta(I4469
I4470
S'vsp'
p153
ta(I4470
I4471
S'vskr'
p154
ta(I4471
I4472
S'vsk'
p155
ta(I4472
I4473
S'vp'
p156
ta(I4473
I4474
S'vkr'
p157
ta(I4474
I4475
S'vkh'
p158
ta(I4475
I4476
S'vk'
p159
ta(I4476
I4477
S'vch'
p160
ta(I4477
I4478
S'tjj'
p161
ta(I4478
I4479
S'tj'
p162
ta(I4479
I4480
S'szh'
p163
ta(I4480
I4481
S'spr'
p164
ta(I4481
I4482
S'splj'
p165
ta(I4482
I4483
S'skh'
p166
ta(I4483
I4484
S'sj'
p167
ta(I4484
I4485
S'sht'
p168
ta(I4485
I4486
S'sb'
p169
ta(I4486
I4487
S'pt'
p170
ta(I4487
I4488
S'ps'
p171
ta(I4488
I4489
S'plj'
p172
ta(I4489
I4490
S'nns'
p173
ta(I4490
I4491
S'mr'
p174
ta(I4491
I4492
S'mgl'
p175
ta(I4492
I4493
S'kv'
p176
ta(I4493
I4494
S'kn'
p177
ta(I4494
I4495
S'khv'
p178
ta(I4495
I4496
S'ia'
p179
ta(I4496
I4497
S'grj'
p180
ta(I4497
I4498
S'eu'
p181
ta(I4498
I4499
S'dl'
p182
ta(I4499
I4500
S'chrn'
p183
ta(I4500
I4501
S'ae'
p184
tasS'medials'
p185
(lp186
(I1
I1988
S'o'
ta(I1988
I3720
S'a'
ta(I3720
I5279
S'e'
ta(I5279
I6308
S'i'
ta(I6308
I6889
S'u'
ta(I6889
I7290
S'l'
ta(I7290
I7630
S'v'
ta(I7630
I7956
S'n'
ta(I7956
I8271
S'y'
ta(I8271
I8569
S'r'
ta(I8569
I8852
S't'
ta(I8852
I9097
S'd'
ta(I9097
I9333
S'j'
ta(I9333
I9544
S'm'
ta(I9544
I9731
S'g'
ta(I9731
I9916
S'k'
ta(I9916
I10081
S's'
ta(I10081
I10246
S'ch'
p187
ta(I10246
I10388
S'b'
ta(I10388
I10521
S'c'
ta(I10521
I10651
S'nn'
p188
ta(I10651
I10762
S'z'
ta(I10762
I10873
S'sh'
p189
ta(I10873
I10969
S'zh'
p190
ta(I10969
I11064
S'st'
p191
ta(I11064
I11153
S'vk'
p192
ta(I11153
I11214
S'p'
ta(I11214
I11273
S'sl'
p193
ta(I11273
I11326
S'dn'
p194
ta(I11326
I11377
S'vn'
p195
ta(I11377
I11425
S'lk'
p196
ta(I11425
I11473
S'ae'
p197
ta(I11473
I11520
S'shch'
p198
ta(I11520
I11563
S'sk'
p199
ta(I11563
I11603
S'kh'
p200
ta(I11603
I11641
S'chn'
p201
ta(I11641
I11677
S'tsj'
p202
ta(I11677
I11712
S'br'
p203
ta(I11712
I11746
S'chk'
p204
ta(I11746
I11779
S'ss'
p205
ta(I11779
I11810
S'zhn'
p206
ta(I11810
I11840
S'gr'
p207
ta(I11840
I11869
S'sn'
p208
ta(I11869
I11898
S'kt'
p209
ta(I11898
I11926
S'ia'
p210
ta(I11926
I11954
S'gd'
p211
ta(I11954
I11981
S'nj'
p212
ta(I11981
I12007
S'sj'
p213
ta(I12007
I12033
S'nt'
p214
ta(I12033
I12058
S'ljn'
p215
ta(I12058
I12082
S'shk'
p216
ta(I12082
I12106
S'rn'
p217
ta(I12106
I12128
S'zhd'
p218
ta(I12128
I12150
S'rt'
p219
ta(I12150
I12172
S'io'
p220
ta(I12172
I12192
S'rs'
p221
ta(I12192
I12212
S'oe'
p222
ta(I12212
I12232
S'lsj'
p223
ta(I12232
I12251
S'tl'
p224
ta(I12251
I12270
S'stn'
p225
ta(I12270
I12289
S'rm'
p226
ta(I12289
I12308
S'nf'
p227
ta(I12308
I12327
S'ie'
p228
ta(I12327
I12346
S'bk'
p229
ta(I12346
I12365
S'bj'
p230
ta(I12365
I12383
S'ts'
p231
ta(I12383
I12401
S'tr'
p232
ta(I12401
I12419
S'eo'
p233
ta(I12419
I12436
S'oi'
p234
ta(I12436
I12452
S'nsk'
p235
ta(I12452
I12468
S'kl'
p236
ta(I12468
I12484
S'bl'
p237
ta(I12484
I12499
S'sp'
p238
ta(I12499
I12514
S'shn'
p239
ta(I12514
I12529
S'pr'
p240
ta(I12529
I12544
S'nc'
p241
ta(I12544
I12559
S'lj'
p242
ta(I12559
I12573
S'ssk'
p243
ta(I12573
I12587
S'lg'
p244
ta(I12587
I12601
S'dm'
p245
ta(I12601
I12614
S'zn'
p246
ta(I12614
I12627
S'zd'
p247
ta(I12627
I12640
S'vsh'
p248
ta(I12640
I12653
S'tn'
p249
ta(I12653
I12666
S'shl'
p250
ta(I12666
I12679
S'mn'
p251
ta(I12679
I12691
S'tk'
p252
ta(I12691
I12703
S'jd'
p253
ta(I12703
I12714
S'ue'
p254
ta(I12714
I12724
S'vl'
p255
ta(I12724
I12734
S'sm'
p256
ta(I12734
I12744
S'rtsk'
p257
ta(I12744
I12754
S'f'
ta(I12754
I12763
S'sch'
p258
ta(I12763
I12772
S'rj'
p259
ta(I12772
I12781
S'kr'
p260
ta(I12781
I12790
S'gl'
p261
ta(I12790
I12798
S'zv'
p262
ta(I12798
I12806
S'vt'
p263
ta(I12806
I12814
S'vd'
p264
ta(I12814
I12822
S'tm'
p265
ta(I12822
I12830
S'th'
p266
ta(I12830
I12838
S'str'
p267
ta(I12838
I12846
S'rv'
p268
ta(I12846
I12854
S'rsh'
p269
ta(I12854
I12862
S'rkh'
p270
ta(I12862
I12870
S'nk'
p271
ta(I12870
I12878
S'll'
p272
ta(I12878
I12886
S'jt'
p273
ta(I12886
I12894
S'dt'
p274
ta(I12894
I12901
S'zr'
p275
ta(I12901
I12908
S'snj'
p276
ta(I12908
I12915
S'rsk'
p277
ta(I12915
I12922
S'pn'
p278
ta(I12922
I12929
S'nd'
p279
ta(I12929
I12936
S'lnc'
p280
ta(I12936
I12943
S'gn'
p281
ta(I12943
I12950
S'dnj'
p282
ta(I12950
I12957
S'bn'
p283
ta(I12957
I12964
S'au'
p284
ta(I12964
I12970
S'zl'
p285
ta(I12970
I12976
S'tv'
p286
ta(I12976
I12982
S'stv'
p287
ta(I12982
I12988
S'stl'
p288
ta(I12988
I12994
S'rzh'
p289
ta(I12994
I13000
S'rd'
p290
ta(I13000
I13006
S'rch'
p291
ta(I13006
I13012
S'q'
ta(I13012
I13018
S'pl'
p292
ta(I13018
I13024
S'mm'
p293
ta(I13024
I13030
S'kn'
p294
ta(I13030
I13036
S'jstv'
p295
ta(I13036
I13042
S'jn'
p296
ta(I13042
I13048
S'iu'
p297
ta(I13048
I13054
S'ea'
p298
ta(I13054
I13060
S'dk'
p299
ta(I13060
I13066
S'dj'
p300
ta(I13066
I13072
S'aiu'
p301
ta(I13072
I13077
S'zdn'
p302
ta(I13077
I13082
S'ssm'
p303
ta(I13082
I13087
S'mp'
p304
ta(I13087
I13092
S'mj'
p305
ta(I13092
I13097
S'ln'
p306
ta(I13097
I13102
S'khn'
p307
ta(I13102
I13107
S'jsk'
p308
ta(I13107
I13112
S'gk'
p309
ta(I13112
I13117
S'ei'
p310
ta(I13117
I13122
S'dr'
p311
ta(I13122
I13127
S'ck'
p312
ta(I13127
I13132
S'bstr'
p313
ta(I13132
I13137
S'blj'
p314
ta(I13137
I13142
S'ai'
p315
ta(I13142
I13146
S'zm'
p316
ta(I13146
I13150
S'zb'
p317
ta(I13150
I13154
S'w'
ta(I13154
I13158
S'vsk'
p318
ta(I13158
I13162
S'vch'
p319
ta(I13162
I13166
S'tsk'
p320
ta(I13166
I13170
S'tj'
p321
ta(I13170
I13174
S'tc'
p322
ta(I13174
I13178
S'spr'
p323
ta(I13178
I13182
S'skr'
p324
ta(I13182
I13186
S'rg'
p325
ta(I13186
I13190
S'rdc'
p326
ta(I13190
I13194
S'nst'
p327
ta(I13194
I13198
S'mpjj'
p328
ta(I13198
I13202
S'ml'
p329
ta(I13202
I13206
S'lzhn'
p330
ta(I13206
I13210
S'ljz'
p331
ta(I13210
I13214
S'ljt'
p332
ta(I13214
I13218
S'klj'
p333
ta(I13218
I13222
S'jch'
p334
ta(I13222
I13226
S'dc'
p335
ta(I13226
I13230
S'ct'
p336
ta(I13230
I13234
S'cht'
p337
ta(I13234
I13237
S'vstv'
p338
ta(I13237
I13240
S'vs'
p339
ta(I13240
I13243
S'vj'
p340
ta(I13243
I13246
S'ui'
p341
ta(I13246
I13249
S'ua'
p342
ta(I13249
I13252
S'td'
p343
ta(I13252
I13255
S'tch'
p344
ta(I13255
I13258
S'sv'
p345
ta(I13258
I13261
S'stj'
p346
ta(I13261
I13264
S'pc'
p347
ta(I13264
I13267
S'ou'
p348
ta(I13267
I13270
S'oo'
p349
ta(I13270
I13273
S'ntr'
p350
ta(I13273
I13276
S'nth'
p351
ta(I13276
I13279
S'nstv'
p352
ta(I13279
I13282
S'nstr'
p353
ta(I13282
I13285
S'ncl'
p354
ta(I13285
I13288
S'lt'
p355
ta(I13288
I13291
S'ld'
p356
ta(I13291
I13294
S'ktr'
p357
ta(I13294
I13297
S'hl'
p358
ta(I13297
I13300
S'ee'
p359
ta(I13300
I13303
S'dl'
p360
ta(I13303
I13306
S'chsh'
p361
ta(I13306
I13308
S'zvr'
p362
ta(I13308
I13310
S'zk'
p363
ta(I13310
I13312
S'zhzh'
p364
ta(I13312
I13314
S'zhk'
p365
ta(I13314
I13316
S'ya'
p366
ta(I13316
I13318
S'x'
ta(I13318
I13320
S'tt'
p367
ta(I13320
I13322
S'trj'
p368
ta(I13322
I13324
S'tkr'
p369
ta(I13324
I13326
S'stk'
p370
ta(I13326
I13328
S'sstv'
p371
ta(I13328
I13330
S'ssch'
p372
ta(I13330
I13332
S'spl'
p373
ta(I13332
I13334
S'shchjj'
p374
ta(I13334
I13336
S'rtv'
p375
ta(I13336
I13338
S'rk'
p376
ta(I13338
I13340
S'pt'
p377
ta(I13340
I13342
S'prj'
p378
ta(I13342
I13344
S'ppl'
p379
ta(I13344
I13346
S'plj'
p380
ta(I13346
I13348
S'pk'
p381
ta(I13348
I13350
S'pch'
p382
ta(I13350
I13352
S'ng'
p383
ta(I13352
I13354
S'nch'
p384
ta(I13354
I13356
S'mr'
p385
ta(I13356
I13358
S'mpl'
p386
ta(I13358
I13360
S'mk'
p387
ta(I13360
I13362
S'mb'
p388
ta(I13362
I13364
S'ls'
p389
ta(I13364
I13366
S'lp'
p390
ta(I13366
I13368
S'kzh'
p391
ta(I13368
I13370
S'jsh'
p392
ta(I13370
I13372
S'jk'
p393
ta(I13372
I13374
S'hff'
p394
ta(I13374
I13376
S'glj'
p395
ta(I13376
I13378
S'eu'
p396
ta(I13378
I13380
S'eiu'
p397
ta(I13380
I13382
S'dstv'
p398
ta(I13382
I13384
S'dsh'
p399
ta(I13384
I13386
S'dd'
p400
ta(I13386
I13388
S'bv'
p401
ta(I13388
I13390
S'ay'
p402
ta(I13390
I13391
S'zzh'
p403
ta(I13391
I13392
S'zhsk'
p404
ta(I13392
I13393
S'zhr'
p405
ta(I13393
I13394
S'zhm'
p406
ta(I13394
I13395
S'zhb'
p407
ta(I13395
I13396
S'zgr'
p408
ta(I13396
I13397
S'zg'
p409
ta(I13397
I13398
S'zdv'
p410
ta(I13398
I13399
S'yu'
p411
ta(I13399
I13400
S'vzn'
p412
ta(I13400
I13401
S'vzl'
p413
ta(I13401
I13402
S'vtr'
p414
ta(I13402
I13403
S'vstr'
p415
ta(I13403
I13404
S'vr'
p416
ta(I13404
I13405
S'vnj'
p417
ta(I13405
I13406
S'vlj'
p418
ta(I13406
I13407
S'vg'
p419
ta(I13407
I13408
S'vc'
p420
ta(I13408
I13409
S'uiu'
p421
ta(I13409
I13410
S'uie'
p422
ta(I13410
I13411
S'tst'
p423
ta(I13411
I13412
S'tp'
p424
ta(I13412
I13413
S'tkn'
p425
ta(I13413
I13414
S'svj'
p426
ta(I13414
I13415
S'ssv'
p427
ta(I13415
I13416
S'sst'
p428
ta(I13416
I13417
S'ssh'
p429
ta(I13417
I13418
S'snn'
p430
ta(I13418
I13419
S'slj'
p431
ta(I13419
I13420
S'skh'
p432
ta(I13420
I13421
S'scr'
p433
ta(I13421
I13422
S'sc'
p434
ta(I13422
I13423
S'sb'
p435
ta(I13423
I13424
S'rvn'
p436
ta(I13424
I13425
S'rtn'
p437
ta(I13425
I13426
S'rstv'
p438
ta(I13426
I13427
S'rst'
p439
ta(I13427
I13428
S'rsp'
p440
ta(I13428
I13429
S'rr'
p441
ta(I13429
I13430
S'rp'
p442
ta(I13430
I13431
S'rnj'
p443
ta(I13431
I13432
S'rkv'
p444
ta(I13432
I13433
S'rkhn'
p445
ta(I13433
I13434
S'rh'
p446
ta(I13434
I13435
S'rdts'
p447
ta(I13435
I13436
S'rdn'
p448
ta(I13436
I13437
S'rb'
p449
ta(I13437
I13438
S'pp'
p450
ta(I13438
I13439
S'oia'
p451
ta(I13439
I13440
S'nw'
p452
ta(I13440
I13441
S'ntsk'
p453
ta(I13441
I13442
S'ntn'
p454
ta(I13442
I13443
S'nsl'
p455
ta(I13443
I13444
S'nkv'
p456
ta(I13444
I13445
S'nkc'
p457
ta(I13445
I13446
S'ngl'
p458
ta(I13446
I13447
S'nct'
p459
ta(I13447
I13448
S'msj'
p460
ta(I13448
I13449
S'ms'
p461
ta(I13449
I13450
S'mlj'
p462
ta(I13450
I13451
S'lvn'
p463
ta(I13451
I13452
S'lnts'
p464
ta(I13452
I13453
S'ljstv'
p465
ta(I13453
I13454
S'ljsk'
p466
ta(I13454
I13455
S'lf'
p467
ta(I13455
I13456
S'lb'
p468
ta(I13456
I13457
S'ktn'
p469
ta(I13457
I13458
S'ksj'
p470
ta(I13458
I13459
S'ks'
p471
ta(I13459
I13460
S'khr'
p472
ta(I13460
I13461
S'khl'
p473
ta(I13461
I13462
S'jsj'
p474
ta(I13462
I13463
S'js'
p475
ta(I13463
I13464
S'jdj'
p476
ta(I13464
I13465
S'jc'
p477
ta(I13465
I13466
S'ioe'
p478
ta(I13466
I13467
S'ht'
p479
ta(I13467
I13468
S'hk'
p480
ta(I13468
I13469
S'h'
ta(I13469
I13470
S'gt'
p481
ta(I13470
I13471
S'gnj'
p482
ta(I13471
I13472
S'fr'
p483
ta(I13472
I13473
S'fm'
p484
ta(I13473
I13474
S'eou'
p485
ta(I13474
I13475
S'dz'
p486
ta(I13475
I13476
S'dst'
p487
ta(I13476
I13477
S'dg'
p488
ta(I13477
I13478
S'cj'
p489
ta(I13478
I13479
S'chch'
p490
ta(I13479
I13480
S'bch'
p491
tas.